ARM GAS  C:\Users\kevan\AppData\Local\Temp\ccXb7CWJ.s 			page 1


   1              		.syntax unified
   2              		.cpu cortex-m3
   3              		.fpu softvfp
   4              		.eabi_attribute 20, 1
   5              		.eabi_attribute 21, 1
   6              		.eabi_attribute 23, 3
   7              		.eabi_attribute 24, 1
   8              		.eabi_attribute 25, 1
   9              		.eabi_attribute 26, 1
  10              		.eabi_attribute 30, 1
  11              		.eabi_attribute 34, 1
  12              		.eabi_attribute 18, 4
  13              		.thumb
  14              		.syntax unified
  15              		.file	"ADC_SAR_1.c"
  16              		.text
  17              	.Ltext0:
  18              		.cfi_sections	.debug_frame
  19              		.section	.text.ADC_SAR_1_CalcGain,"ax",%progbits
  20              		.align	2
  21              		.thumb
  22              		.thumb_func
  23              		.type	ADC_SAR_1_CalcGain, %function
  24              	ADC_SAR_1_CalcGain:
  25              	.LFB12:
  26              		.file 1 "Generated_Source\\PSoC5\\ADC_SAR_1.c"
   1:Generated_Source\PSoC5/ADC_SAR_1.c **** /*******************************************************************************
   2:Generated_Source\PSoC5/ADC_SAR_1.c **** * File Name: ADC_SAR_1.c
   3:Generated_Source\PSoC5/ADC_SAR_1.c **** * Version 3.10
   4:Generated_Source\PSoC5/ADC_SAR_1.c **** *
   5:Generated_Source\PSoC5/ADC_SAR_1.c **** * Description:
   6:Generated_Source\PSoC5/ADC_SAR_1.c **** *  This file provides the source code to the API for the Successive
   7:Generated_Source\PSoC5/ADC_SAR_1.c **** *  approximation ADC Component.
   8:Generated_Source\PSoC5/ADC_SAR_1.c **** *
   9:Generated_Source\PSoC5/ADC_SAR_1.c **** * Note:
  10:Generated_Source\PSoC5/ADC_SAR_1.c **** *
  11:Generated_Source\PSoC5/ADC_SAR_1.c **** ********************************************************************************
  12:Generated_Source\PSoC5/ADC_SAR_1.c **** * Copyright 2008-2015, Cypress Semiconductor Corporation.  All rights reserved.
  13:Generated_Source\PSoC5/ADC_SAR_1.c **** * You may use this file only in accordance with the license, terms, conditions,
  14:Generated_Source\PSoC5/ADC_SAR_1.c **** * disclaimers, and limitations in the end user license agreement accompanying
  15:Generated_Source\PSoC5/ADC_SAR_1.c **** * the software package with which this file was provided.
  16:Generated_Source\PSoC5/ADC_SAR_1.c **** *******************************************************************************/
  17:Generated_Source\PSoC5/ADC_SAR_1.c **** 
  18:Generated_Source\PSoC5/ADC_SAR_1.c **** #include "CyLib.h"
  19:Generated_Source\PSoC5/ADC_SAR_1.c **** #include "ADC_SAR_1.h"
  20:Generated_Source\PSoC5/ADC_SAR_1.c **** 
  21:Generated_Source\PSoC5/ADC_SAR_1.c **** #if(ADC_SAR_1_DEFAULT_INTERNAL_CLK)
  22:Generated_Source\PSoC5/ADC_SAR_1.c ****     #include "ADC_SAR_1_theACLK.h"
  23:Generated_Source\PSoC5/ADC_SAR_1.c **** #endif /* End ADC_SAR_1_DEFAULT_INTERNAL_CLK */
  24:Generated_Source\PSoC5/ADC_SAR_1.c **** 
  25:Generated_Source\PSoC5/ADC_SAR_1.c **** 
  26:Generated_Source\PSoC5/ADC_SAR_1.c **** /***************************************
  27:Generated_Source\PSoC5/ADC_SAR_1.c **** * Forward function references
  28:Generated_Source\PSoC5/ADC_SAR_1.c **** ***************************************/
  29:Generated_Source\PSoC5/ADC_SAR_1.c **** static void ADC_SAR_1_CalcGain(uint8 resolution);
  30:Generated_Source\PSoC5/ADC_SAR_1.c **** 
  31:Generated_Source\PSoC5/ADC_SAR_1.c **** 
ARM GAS  C:\Users\kevan\AppData\Local\Temp\ccXb7CWJ.s 			page 2


  32:Generated_Source\PSoC5/ADC_SAR_1.c **** /***************************************
  33:Generated_Source\PSoC5/ADC_SAR_1.c **** * Global data allocation
  34:Generated_Source\PSoC5/ADC_SAR_1.c **** ***************************************/
  35:Generated_Source\PSoC5/ADC_SAR_1.c **** uint8 ADC_SAR_1_initVar = 0u;
  36:Generated_Source\PSoC5/ADC_SAR_1.c **** volatile int16 ADC_SAR_1_offset;
  37:Generated_Source\PSoC5/ADC_SAR_1.c **** volatile int16 ADC_SAR_1_countsPerVolt;     /* Obsolete Gain compensation */
  38:Generated_Source\PSoC5/ADC_SAR_1.c **** volatile int32 ADC_SAR_1_countsPer10Volt;   /* Gain compensation */
  39:Generated_Source\PSoC5/ADC_SAR_1.c **** volatile int16 ADC_SAR_1_shift;
  40:Generated_Source\PSoC5/ADC_SAR_1.c **** 
  41:Generated_Source\PSoC5/ADC_SAR_1.c **** 
  42:Generated_Source\PSoC5/ADC_SAR_1.c **** /*******************************************************************************
  43:Generated_Source\PSoC5/ADC_SAR_1.c **** * Function Name: ADC_SAR_1_Start
  44:Generated_Source\PSoC5/ADC_SAR_1.c **** ********************************************************************************
  45:Generated_Source\PSoC5/ADC_SAR_1.c **** *
  46:Generated_Source\PSoC5/ADC_SAR_1.c **** * Summary:
  47:Generated_Source\PSoC5/ADC_SAR_1.c **** *  This is the preferred method to begin component operation.
  48:Generated_Source\PSoC5/ADC_SAR_1.c **** *  ADC_SAR_1_Start() sets the initVar variable, calls the
  49:Generated_Source\PSoC5/ADC_SAR_1.c **** *  ADC_SAR_1_Init() function, and then calls the
  50:Generated_Source\PSoC5/ADC_SAR_1.c **** *  ADC_SAR_1_Enable() function.
  51:Generated_Source\PSoC5/ADC_SAR_1.c **** *
  52:Generated_Source\PSoC5/ADC_SAR_1.c **** * Parameters:
  53:Generated_Source\PSoC5/ADC_SAR_1.c **** *  None.
  54:Generated_Source\PSoC5/ADC_SAR_1.c **** *
  55:Generated_Source\PSoC5/ADC_SAR_1.c **** * Return:
  56:Generated_Source\PSoC5/ADC_SAR_1.c **** *  None.
  57:Generated_Source\PSoC5/ADC_SAR_1.c **** *
  58:Generated_Source\PSoC5/ADC_SAR_1.c **** * Global variables:
  59:Generated_Source\PSoC5/ADC_SAR_1.c **** *  The ADC_SAR_1_initVar variable is used to indicate when/if initial
  60:Generated_Source\PSoC5/ADC_SAR_1.c **** *  configuration of this component has happened. The variable is initialized to
  61:Generated_Source\PSoC5/ADC_SAR_1.c **** *  zero and set to 1 the first time ADC_Start() is called. This allows for
  62:Generated_Source\PSoC5/ADC_SAR_1.c **** *  component Re-Start without re-initialization in all subsequent calls to the
  63:Generated_Source\PSoC5/ADC_SAR_1.c **** *  ADC_SAR_1_Start() routine.
  64:Generated_Source\PSoC5/ADC_SAR_1.c **** *  If re-initialization of the component is required the variable should be set
  65:Generated_Source\PSoC5/ADC_SAR_1.c **** *  to zero before call of ADC_SAR_1_Start() routine, or the user may call
  66:Generated_Source\PSoC5/ADC_SAR_1.c **** *  ADC_SAR_1_Init() and ADC_SAR_1_Enable() as done in the
  67:Generated_Source\PSoC5/ADC_SAR_1.c **** *  ADC_SAR_1_Start() routine.
  68:Generated_Source\PSoC5/ADC_SAR_1.c **** *
  69:Generated_Source\PSoC5/ADC_SAR_1.c **** * Side Effect:
  70:Generated_Source\PSoC5/ADC_SAR_1.c **** *  If the initVar variable is already set, this function only calls the
  71:Generated_Source\PSoC5/ADC_SAR_1.c **** *  ADC_SAR_1_Enable() function.
  72:Generated_Source\PSoC5/ADC_SAR_1.c **** *
  73:Generated_Source\PSoC5/ADC_SAR_1.c **** *******************************************************************************/
  74:Generated_Source\PSoC5/ADC_SAR_1.c **** void ADC_SAR_1_Start(void)
  75:Generated_Source\PSoC5/ADC_SAR_1.c **** {
  76:Generated_Source\PSoC5/ADC_SAR_1.c **** 
  77:Generated_Source\PSoC5/ADC_SAR_1.c ****     /* If not Initialized then initialize all required hardware and software */
  78:Generated_Source\PSoC5/ADC_SAR_1.c ****     if(ADC_SAR_1_initVar == 0u)
  79:Generated_Source\PSoC5/ADC_SAR_1.c ****     {
  80:Generated_Source\PSoC5/ADC_SAR_1.c ****         ADC_SAR_1_Init();
  81:Generated_Source\PSoC5/ADC_SAR_1.c ****         ADC_SAR_1_initVar = 1u;
  82:Generated_Source\PSoC5/ADC_SAR_1.c ****     }
  83:Generated_Source\PSoC5/ADC_SAR_1.c ****     ADC_SAR_1_Enable();
  84:Generated_Source\PSoC5/ADC_SAR_1.c **** }
  85:Generated_Source\PSoC5/ADC_SAR_1.c **** 
  86:Generated_Source\PSoC5/ADC_SAR_1.c **** 
  87:Generated_Source\PSoC5/ADC_SAR_1.c **** /*******************************************************************************
  88:Generated_Source\PSoC5/ADC_SAR_1.c **** * Function Name: ADC_SAR_1_Init
ARM GAS  C:\Users\kevan\AppData\Local\Temp\ccXb7CWJ.s 			page 3


  89:Generated_Source\PSoC5/ADC_SAR_1.c **** ********************************************************************************
  90:Generated_Source\PSoC5/ADC_SAR_1.c **** *
  91:Generated_Source\PSoC5/ADC_SAR_1.c **** * Summary:
  92:Generated_Source\PSoC5/ADC_SAR_1.c **** *  Initialize component's parameters to the parameters set by user in the
  93:Generated_Source\PSoC5/ADC_SAR_1.c **** *  customizer of the component placed onto schematic. Usually called in
  94:Generated_Source\PSoC5/ADC_SAR_1.c **** *  ADC_SAR_1_Start().
  95:Generated_Source\PSoC5/ADC_SAR_1.c **** *
  96:Generated_Source\PSoC5/ADC_SAR_1.c **** * Parameters:
  97:Generated_Source\PSoC5/ADC_SAR_1.c **** *  None.
  98:Generated_Source\PSoC5/ADC_SAR_1.c **** *
  99:Generated_Source\PSoC5/ADC_SAR_1.c **** * Return:
 100:Generated_Source\PSoC5/ADC_SAR_1.c **** *  None.
 101:Generated_Source\PSoC5/ADC_SAR_1.c **** *
 102:Generated_Source\PSoC5/ADC_SAR_1.c **** * Global variables:
 103:Generated_Source\PSoC5/ADC_SAR_1.c **** *  The ADC_SAR_1_offset variable is initialized to 0.
 104:Generated_Source\PSoC5/ADC_SAR_1.c **** *
 105:Generated_Source\PSoC5/ADC_SAR_1.c **** *******************************************************************************/
 106:Generated_Source\PSoC5/ADC_SAR_1.c **** void ADC_SAR_1_Init(void)
 107:Generated_Source\PSoC5/ADC_SAR_1.c **** {
 108:Generated_Source\PSoC5/ADC_SAR_1.c **** 
 109:Generated_Source\PSoC5/ADC_SAR_1.c ****     /* This is only valid if there is an internal clock */
 110:Generated_Source\PSoC5/ADC_SAR_1.c ****     #if(ADC_SAR_1_DEFAULT_INTERNAL_CLK)
 111:Generated_Source\PSoC5/ADC_SAR_1.c ****         ADC_SAR_1_theACLK_SetMode(CYCLK_DUTY);
 112:Generated_Source\PSoC5/ADC_SAR_1.c ****     #endif /* End ADC_SAR_1_DEFAULT_INTERNAL_CLK */
 113:Generated_Source\PSoC5/ADC_SAR_1.c **** 
 114:Generated_Source\PSoC5/ADC_SAR_1.c ****     #if(ADC_SAR_1_IRQ_REMOVE == 0u)
 115:Generated_Source\PSoC5/ADC_SAR_1.c ****         /* Start and set interrupt vector */
 116:Generated_Source\PSoC5/ADC_SAR_1.c ****         CyIntSetPriority(ADC_SAR_1_INTC_NUMBER, ADC_SAR_1_INTC_PRIOR_NUMBER);
 117:Generated_Source\PSoC5/ADC_SAR_1.c ****         (void)CyIntSetVector(ADC_SAR_1_INTC_NUMBER, &ADC_SAR_1_ISR);
 118:Generated_Source\PSoC5/ADC_SAR_1.c ****     #endif   /* End ADC_SAR_1_IRQ_REMOVE */
 119:Generated_Source\PSoC5/ADC_SAR_1.c **** 
 120:Generated_Source\PSoC5/ADC_SAR_1.c ****     /* Enable IRQ mode*/
 121:Generated_Source\PSoC5/ADC_SAR_1.c ****     ADC_SAR_1_SAR_CSR1_REG |= ADC_SAR_1_SAR_IRQ_MASK_EN | ADC_SAR_1_SAR_IRQ_MODE_EDGE;
 122:Generated_Source\PSoC5/ADC_SAR_1.c **** 
 123:Generated_Source\PSoC5/ADC_SAR_1.c ****     /*Set SAR ADC resolution ADC */
 124:Generated_Source\PSoC5/ADC_SAR_1.c ****     ADC_SAR_1_SetResolution(ADC_SAR_1_DEFAULT_RESOLUTION);
 125:Generated_Source\PSoC5/ADC_SAR_1.c ****     ADC_SAR_1_offset = 0;
 126:Generated_Source\PSoC5/ADC_SAR_1.c **** }
 127:Generated_Source\PSoC5/ADC_SAR_1.c **** 
 128:Generated_Source\PSoC5/ADC_SAR_1.c **** 
 129:Generated_Source\PSoC5/ADC_SAR_1.c **** /*******************************************************************************
 130:Generated_Source\PSoC5/ADC_SAR_1.c **** * Function Name: ADC_SAR_1_Enable
 131:Generated_Source\PSoC5/ADC_SAR_1.c **** ********************************************************************************
 132:Generated_Source\PSoC5/ADC_SAR_1.c **** *
 133:Generated_Source\PSoC5/ADC_SAR_1.c **** * Summary:
 134:Generated_Source\PSoC5/ADC_SAR_1.c **** *  Enables the reference, clock and power for SAR ADC.
 135:Generated_Source\PSoC5/ADC_SAR_1.c **** *
 136:Generated_Source\PSoC5/ADC_SAR_1.c **** * Parameters:
 137:Generated_Source\PSoC5/ADC_SAR_1.c **** *  None.
 138:Generated_Source\PSoC5/ADC_SAR_1.c **** *
 139:Generated_Source\PSoC5/ADC_SAR_1.c **** * Return:
 140:Generated_Source\PSoC5/ADC_SAR_1.c **** *  None.
 141:Generated_Source\PSoC5/ADC_SAR_1.c **** *
 142:Generated_Source\PSoC5/ADC_SAR_1.c **** *******************************************************************************/
 143:Generated_Source\PSoC5/ADC_SAR_1.c **** void ADC_SAR_1_Enable(void)
 144:Generated_Source\PSoC5/ADC_SAR_1.c **** {
 145:Generated_Source\PSoC5/ADC_SAR_1.c ****     uint8 tmpReg;
ARM GAS  C:\Users\kevan\AppData\Local\Temp\ccXb7CWJ.s 			page 4


 146:Generated_Source\PSoC5/ADC_SAR_1.c ****     uint8 enableInterrupts;
 147:Generated_Source\PSoC5/ADC_SAR_1.c ****     enableInterrupts = CyEnterCriticalSection();
 148:Generated_Source\PSoC5/ADC_SAR_1.c **** 
 149:Generated_Source\PSoC5/ADC_SAR_1.c ****     /* Enable the SAR ADC block in Active Power Mode */
 150:Generated_Source\PSoC5/ADC_SAR_1.c ****     ADC_SAR_1_PWRMGR_SAR_REG |= ADC_SAR_1_ACT_PWR_SAR_EN;
 151:Generated_Source\PSoC5/ADC_SAR_1.c **** 
 152:Generated_Source\PSoC5/ADC_SAR_1.c ****      /* Enable the SAR ADC in Standby Power Mode*/
 153:Generated_Source\PSoC5/ADC_SAR_1.c ****     ADC_SAR_1_STBY_PWRMGR_SAR_REG |= ADC_SAR_1_STBY_PWR_SAR_EN;
 154:Generated_Source\PSoC5/ADC_SAR_1.c **** 
 155:Generated_Source\PSoC5/ADC_SAR_1.c ****     /* This is only valid if there is an internal clock */
 156:Generated_Source\PSoC5/ADC_SAR_1.c ****     #if(ADC_SAR_1_DEFAULT_INTERNAL_CLK)
 157:Generated_Source\PSoC5/ADC_SAR_1.c ****         ADC_SAR_1_PWRMGR_CLK_REG |= ADC_SAR_1_ACT_PWR_CLK_EN;
 158:Generated_Source\PSoC5/ADC_SAR_1.c ****         ADC_SAR_1_STBY_PWRMGR_CLK_REG |= ADC_SAR_1_STBY_PWR_CLK_EN;
 159:Generated_Source\PSoC5/ADC_SAR_1.c ****     #endif /* End ADC_SAR_1_DEFAULT_INTERNAL_CLK */
 160:Generated_Source\PSoC5/ADC_SAR_1.c **** 
 161:Generated_Source\PSoC5/ADC_SAR_1.c ****     /* Enable VCM buffer and Enable Int Ref Amp */
 162:Generated_Source\PSoC5/ADC_SAR_1.c ****     tmpReg = ADC_SAR_1_SAR_CSR3_REG;
 163:Generated_Source\PSoC5/ADC_SAR_1.c ****     tmpReg |= ADC_SAR_1_SAR_EN_BUF_VCM_EN;
 164:Generated_Source\PSoC5/ADC_SAR_1.c ****     /* PD_BUF_VREF is OFF in External reference or Vdda reference mode */
 165:Generated_Source\PSoC5/ADC_SAR_1.c ****     #if((ADC_SAR_1_DEFAULT_REFERENCE == ADC_SAR_1__EXT_REF) || \
 166:Generated_Source\PSoC5/ADC_SAR_1.c ****         (ADC_SAR_1_DEFAULT_RANGE == ADC_SAR_1__VNEG_VDDA_DIFF))
 167:Generated_Source\PSoC5/ADC_SAR_1.c ****         tmpReg &= (uint8)~ADC_SAR_1_SAR_EN_BUF_VREF_EN;
 168:Generated_Source\PSoC5/ADC_SAR_1.c ****     #else /* In INTREF or INTREF Bypassed this buffer is ON */
 169:Generated_Source\PSoC5/ADC_SAR_1.c ****         tmpReg |= ADC_SAR_1_SAR_EN_BUF_VREF_EN;
 170:Generated_Source\PSoC5/ADC_SAR_1.c ****     #endif /* ADC_SAR_1_DEFAULT_REFERENCE == ADC_SAR_1__EXT_REF */
 171:Generated_Source\PSoC5/ADC_SAR_1.c ****     ADC_SAR_1_SAR_CSR3_REG = tmpReg;
 172:Generated_Source\PSoC5/ADC_SAR_1.c **** 
 173:Generated_Source\PSoC5/ADC_SAR_1.c ****     /* Set reference for ADC */
 174:Generated_Source\PSoC5/ADC_SAR_1.c ****     #if(ADC_SAR_1_DEFAULT_RANGE == ADC_SAR_1__VNEG_VDDA_DIFF)
 175:Generated_Source\PSoC5/ADC_SAR_1.c ****         #if(ADC_SAR_1_DEFAULT_REFERENCE == ADC_SAR_1__EXT_REF)
 176:Generated_Source\PSoC5/ADC_SAR_1.c ****             ADC_SAR_1_SAR_CSR6_REG = ADC_SAR_1_INT_BYPASS_EXT_VREF; /* S2 */
 177:Generated_Source\PSoC5/ADC_SAR_1.c ****         #else /* Internal Vdda reference or obsolete bypass mode */
 178:Generated_Source\PSoC5/ADC_SAR_1.c ****             ADC_SAR_1_SAR_CSR6_REG = ADC_SAR_1_VDDA_VREF;           /* S7 */
 179:Generated_Source\PSoC5/ADC_SAR_1.c ****         #endif /* ADC_SAR_1_DEFAULT_REFERENCE == ADC_SAR_1__EXT_REF */
 180:Generated_Source\PSoC5/ADC_SAR_1.c ****     #else  /* Reference goes through internal buffer */
 181:Generated_Source\PSoC5/ADC_SAR_1.c ****         #if(ADC_SAR_1_DEFAULT_REFERENCE == ADC_SAR_1__INT_REF_NOT_BYPASSED)
 182:Generated_Source\PSoC5/ADC_SAR_1.c ****             ADC_SAR_1_SAR_CSR6_REG = ADC_SAR_1_INT_VREF;            /* S3 + S4 */
 183:Generated_Source\PSoC5/ADC_SAR_1.c ****         #else /* INTREF Bypassed of External */
 184:Generated_Source\PSoC5/ADC_SAR_1.c ****             ADC_SAR_1_SAR_CSR6_REG = ADC_SAR_1_INT_BYPASS_EXT_VREF; /* S2 */
 185:Generated_Source\PSoC5/ADC_SAR_1.c ****         #endif /* ADC_SAR_1_DEFAULT_REFERENCE == ADC_SAR_1__INT_REF_NOT_BYPASSED */
 186:Generated_Source\PSoC5/ADC_SAR_1.c ****     #endif /* VNEG_VDDA_DIFF */
 187:Generated_Source\PSoC5/ADC_SAR_1.c **** 
 188:Generated_Source\PSoC5/ADC_SAR_1.c ****     /* Low non-overlap delay for sampling clock signals (for 1MSPS) */
 189:Generated_Source\PSoC5/ADC_SAR_1.c ****     #if(ADC_SAR_1_HIGH_POWER_PULSE == 0u) /* MinPulseWidth <= 50 ns */
 190:Generated_Source\PSoC5/ADC_SAR_1.c ****         ADC_SAR_1_SAR_CSR5_REG &= (uint8)~ADC_SAR_1_SAR_DLY_INC;
 191:Generated_Source\PSoC5/ADC_SAR_1.c ****     #else /* Set High non-overlap delay for sampling clock signals (for <500KSPS)*/
 192:Generated_Source\PSoC5/ADC_SAR_1.c ****         ADC_SAR_1_SAR_CSR5_REG |= ADC_SAR_1_SAR_DLY_INC;
 193:Generated_Source\PSoC5/ADC_SAR_1.c ****     #endif /* ADC_SAR_1_HIGH_POWER_PULSE == 0u */
 194:Generated_Source\PSoC5/ADC_SAR_1.c **** 
 195:Generated_Source\PSoC5/ADC_SAR_1.c ****     /* Increase comparator latch enable delay by 20%, 
 196:Generated_Source\PSoC5/ADC_SAR_1.c ****     *  Increase comparator bias current by 30% without impacting delaysDelay 
 197:Generated_Source\PSoC5/ADC_SAR_1.c ****     *  Default for 1MSPS) 
 198:Generated_Source\PSoC5/ADC_SAR_1.c ****     */
 199:Generated_Source\PSoC5/ADC_SAR_1.c ****     #if(ADC_SAR_1_HIGH_POWER_PULSE == 0u)    /* MinPulseWidth <= 50 ns */
 200:Generated_Source\PSoC5/ADC_SAR_1.c ****         ADC_SAR_1_SAR_CSR5_REG |= ADC_SAR_1_SAR_SEL_CSEL_DFT_CHAR;
 201:Generated_Source\PSoC5/ADC_SAR_1.c ****     #else /* for <500ksps */
 202:Generated_Source\PSoC5/ADC_SAR_1.c ****         ADC_SAR_1_SAR_CSR5_REG &= (uint8)~ADC_SAR_1_SAR_SEL_CSEL_DFT_CHAR;
ARM GAS  C:\Users\kevan\AppData\Local\Temp\ccXb7CWJ.s 			page 5


 203:Generated_Source\PSoC5/ADC_SAR_1.c ****     #endif /* ADC_SAR_1_HIGH_POWER_PULSE == 0u */
 204:Generated_Source\PSoC5/ADC_SAR_1.c **** 
 205:Generated_Source\PSoC5/ADC_SAR_1.c ****     /* Set default power and other configurations for control register 0 in multiple lines */
 206:Generated_Source\PSoC5/ADC_SAR_1.c ****     ADC_SAR_1_SAR_CSR0_REG = (uint8)((uint8)ADC_SAR_1_DEFAULT_POWER << ADC_SAR_1_SAR_POWER_SHIFT)
 207:Generated_Source\PSoC5/ADC_SAR_1.c ****     /* SAR_HIZ_CLEAR:   Should not be used for LP */
 208:Generated_Source\PSoC5/ADC_SAR_1.c ****     #if ((CY_PSOC5LP) || (ADC_SAR_1_DEFAULT_REFERENCE != ADC_SAR_1__EXT_REF))
 209:Generated_Source\PSoC5/ADC_SAR_1.c ****         | ADC_SAR_1_SAR_HIZ_CLEAR
 210:Generated_Source\PSoC5/ADC_SAR_1.c ****     #endif /* SAR_HIZ_CLEAR */
 211:Generated_Source\PSoC5/ADC_SAR_1.c ****     /*Set Convertion mode */
 212:Generated_Source\PSoC5/ADC_SAR_1.c ****     #if(ADC_SAR_1_DEFAULT_CONV_MODE != ADC_SAR_1__FREE_RUNNING)      /* If triggered mode */
 213:Generated_Source\PSoC5/ADC_SAR_1.c ****         | ADC_SAR_1_SAR_MX_SOF_UDB           /* source: UDB */
 214:Generated_Source\PSoC5/ADC_SAR_1.c ****         | ADC_SAR_1_SAR_SOF_MODE_EDGE        /* Set edge-sensitive sof source */
 215:Generated_Source\PSoC5/ADC_SAR_1.c ****     #endif /* ADC_SAR_1_DEFAULT_CONV_MODE */
 216:Generated_Source\PSoC5/ADC_SAR_1.c ****     ; /* end of multiple line initialization */
 217:Generated_Source\PSoC5/ADC_SAR_1.c **** 
 218:Generated_Source\PSoC5/ADC_SAR_1.c ****     ADC_SAR_1_SAR_TR0_REG = ADC_SAR_1_SAR_CAP_TRIM_2;
 219:Generated_Source\PSoC5/ADC_SAR_1.c **** 
 220:Generated_Source\PSoC5/ADC_SAR_1.c ****     /* Enable clock for SAR ADC*/
 221:Generated_Source\PSoC5/ADC_SAR_1.c ****     ADC_SAR_1_SAR_CLK_REG |= ADC_SAR_1_SAR_MX_CLK_EN;
 222:Generated_Source\PSoC5/ADC_SAR_1.c **** 
 223:Generated_Source\PSoC5/ADC_SAR_1.c ****     CyDelayUs(10u); /* The block is ready to use 10 us after the enable signal is set high. */
 224:Generated_Source\PSoC5/ADC_SAR_1.c **** 
 225:Generated_Source\PSoC5/ADC_SAR_1.c ****     #if(ADC_SAR_1_IRQ_REMOVE == 0u)
 226:Generated_Source\PSoC5/ADC_SAR_1.c ****         /* Clear a pending interrupt */
 227:Generated_Source\PSoC5/ADC_SAR_1.c ****         CyIntClearPending(ADC_SAR_1_INTC_NUMBER);
 228:Generated_Source\PSoC5/ADC_SAR_1.c ****     #endif   /* End ADC_SAR_1_IRQ_REMOVE */
 229:Generated_Source\PSoC5/ADC_SAR_1.c **** 
 230:Generated_Source\PSoC5/ADC_SAR_1.c ****     CyExitCriticalSection(enableInterrupts);
 231:Generated_Source\PSoC5/ADC_SAR_1.c **** }
 232:Generated_Source\PSoC5/ADC_SAR_1.c **** 
 233:Generated_Source\PSoC5/ADC_SAR_1.c **** 
 234:Generated_Source\PSoC5/ADC_SAR_1.c **** /*******************************************************************************
 235:Generated_Source\PSoC5/ADC_SAR_1.c **** * Function Name: ADC_SAR_1_Stop
 236:Generated_Source\PSoC5/ADC_SAR_1.c **** ********************************************************************************
 237:Generated_Source\PSoC5/ADC_SAR_1.c **** *
 238:Generated_Source\PSoC5/ADC_SAR_1.c **** * Summary:
 239:Generated_Source\PSoC5/ADC_SAR_1.c **** *  Stops ADC conversions and puts the ADC into its lowest power mode.
 240:Generated_Source\PSoC5/ADC_SAR_1.c **** *
 241:Generated_Source\PSoC5/ADC_SAR_1.c **** * Parameters:
 242:Generated_Source\PSoC5/ADC_SAR_1.c **** *  None.
 243:Generated_Source\PSoC5/ADC_SAR_1.c **** *
 244:Generated_Source\PSoC5/ADC_SAR_1.c **** * Return:
 245:Generated_Source\PSoC5/ADC_SAR_1.c **** *  None.
 246:Generated_Source\PSoC5/ADC_SAR_1.c **** *
 247:Generated_Source\PSoC5/ADC_SAR_1.c **** *******************************************************************************/
 248:Generated_Source\PSoC5/ADC_SAR_1.c **** void ADC_SAR_1_Stop(void)
 249:Generated_Source\PSoC5/ADC_SAR_1.c **** {
 250:Generated_Source\PSoC5/ADC_SAR_1.c ****     uint8 enableInterrupts;
 251:Generated_Source\PSoC5/ADC_SAR_1.c ****     enableInterrupts = CyEnterCriticalSection();
 252:Generated_Source\PSoC5/ADC_SAR_1.c **** 
 253:Generated_Source\PSoC5/ADC_SAR_1.c ****     /* Stop all conversions */
 254:Generated_Source\PSoC5/ADC_SAR_1.c ****     ADC_SAR_1_SAR_CSR0_REG &= (uint8)~ADC_SAR_1_SAR_SOF_START_CONV;
 255:Generated_Source\PSoC5/ADC_SAR_1.c ****     /* Disable the SAR ADC block in Active Power Mode */
 256:Generated_Source\PSoC5/ADC_SAR_1.c ****     ADC_SAR_1_PWRMGR_SAR_REG &= (uint8)~ADC_SAR_1_ACT_PWR_SAR_EN;
 257:Generated_Source\PSoC5/ADC_SAR_1.c ****     /* Disable the SAR ADC in Standby Power Mode */
 258:Generated_Source\PSoC5/ADC_SAR_1.c ****     ADC_SAR_1_STBY_PWRMGR_SAR_REG &= (uint8)~ADC_SAR_1_STBY_PWR_SAR_EN;
 259:Generated_Source\PSoC5/ADC_SAR_1.c **** 
ARM GAS  C:\Users\kevan\AppData\Local\Temp\ccXb7CWJ.s 			page 6


 260:Generated_Source\PSoC5/ADC_SAR_1.c ****     /* This is only valid if there is an internal clock */
 261:Generated_Source\PSoC5/ADC_SAR_1.c ****     #if(ADC_SAR_1_DEFAULT_INTERNAL_CLK)
 262:Generated_Source\PSoC5/ADC_SAR_1.c ****         ADC_SAR_1_PWRMGR_CLK_REG &= (uint8)~ADC_SAR_1_ACT_PWR_CLK_EN;
 263:Generated_Source\PSoC5/ADC_SAR_1.c ****         ADC_SAR_1_STBY_PWRMGR_CLK_REG &= (uint8)~ADC_SAR_1_STBY_PWR_CLK_EN;
 264:Generated_Source\PSoC5/ADC_SAR_1.c ****     #endif /* End ADC_SAR_1_DEFAULT_INTERNAL_CLK */
 265:Generated_Source\PSoC5/ADC_SAR_1.c **** 
 266:Generated_Source\PSoC5/ADC_SAR_1.c ****     CyExitCriticalSection(enableInterrupts);
 267:Generated_Source\PSoC5/ADC_SAR_1.c **** 
 268:Generated_Source\PSoC5/ADC_SAR_1.c **** }
 269:Generated_Source\PSoC5/ADC_SAR_1.c **** 
 270:Generated_Source\PSoC5/ADC_SAR_1.c **** 
 271:Generated_Source\PSoC5/ADC_SAR_1.c **** /*******************************************************************************
 272:Generated_Source\PSoC5/ADC_SAR_1.c **** * Function Name: ADC_SAR_1_SetPower
 273:Generated_Source\PSoC5/ADC_SAR_1.c **** ********************************************************************************
 274:Generated_Source\PSoC5/ADC_SAR_1.c **** *
 275:Generated_Source\PSoC5/ADC_SAR_1.c **** * Summary:
 276:Generated_Source\PSoC5/ADC_SAR_1.c **** *  Sets the operational power of the ADC. You should use the higher power
 277:Generated_Source\PSoC5/ADC_SAR_1.c **** *  settings with faster clock speeds.
 278:Generated_Source\PSoC5/ADC_SAR_1.c **** *
 279:Generated_Source\PSoC5/ADC_SAR_1.c **** * Parameters:
 280:Generated_Source\PSoC5/ADC_SAR_1.c **** *  power:  Power setting for ADC
 281:Generated_Source\PSoC5/ADC_SAR_1.c **** *  0 ->    Normal
 282:Generated_Source\PSoC5/ADC_SAR_1.c **** *  1 ->    Medium power
 283:Generated_Source\PSoC5/ADC_SAR_1.c **** *  2 ->    1.25 power
 284:Generated_Source\PSoC5/ADC_SAR_1.c **** *  3 ->    Minimum power.
 285:Generated_Source\PSoC5/ADC_SAR_1.c **** *
 286:Generated_Source\PSoC5/ADC_SAR_1.c **** * Return:
 287:Generated_Source\PSoC5/ADC_SAR_1.c **** *  None.
 288:Generated_Source\PSoC5/ADC_SAR_1.c **** *
 289:Generated_Source\PSoC5/ADC_SAR_1.c **** *******************************************************************************/
 290:Generated_Source\PSoC5/ADC_SAR_1.c **** void ADC_SAR_1_SetPower(uint8 power)
 291:Generated_Source\PSoC5/ADC_SAR_1.c **** {
 292:Generated_Source\PSoC5/ADC_SAR_1.c ****     uint8 tmpReg;
 293:Generated_Source\PSoC5/ADC_SAR_1.c **** 
 294:Generated_Source\PSoC5/ADC_SAR_1.c ****     /* mask off invalid power settings */
 295:Generated_Source\PSoC5/ADC_SAR_1.c ****     power &= ADC_SAR_1_SAR_API_POWER_MASK;
 296:Generated_Source\PSoC5/ADC_SAR_1.c **** 
 297:Generated_Source\PSoC5/ADC_SAR_1.c ****     /* Set Power parameter  */
 298:Generated_Source\PSoC5/ADC_SAR_1.c ****     tmpReg = ADC_SAR_1_SAR_CSR0_REG & (uint8)~ADC_SAR_1_SAR_POWER_MASK;
 299:Generated_Source\PSoC5/ADC_SAR_1.c ****     tmpReg |= (uint8)(power << ADC_SAR_1_SAR_POWER_SHIFT);
 300:Generated_Source\PSoC5/ADC_SAR_1.c ****     ADC_SAR_1_SAR_CSR0_REG = tmpReg;
 301:Generated_Source\PSoC5/ADC_SAR_1.c **** }
 302:Generated_Source\PSoC5/ADC_SAR_1.c **** 
 303:Generated_Source\PSoC5/ADC_SAR_1.c **** 
 304:Generated_Source\PSoC5/ADC_SAR_1.c **** /*******************************************************************************
 305:Generated_Source\PSoC5/ADC_SAR_1.c **** * Function Name: ADC_SAR_1_SetResolution
 306:Generated_Source\PSoC5/ADC_SAR_1.c **** ********************************************************************************
 307:Generated_Source\PSoC5/ADC_SAR_1.c **** *
 308:Generated_Source\PSoC5/ADC_SAR_1.c **** * Summary:
 309:Generated_Source\PSoC5/ADC_SAR_1.c **** *  Sets the Relution of the SAR.
 310:Generated_Source\PSoC5/ADC_SAR_1.c **** *
 311:Generated_Source\PSoC5/ADC_SAR_1.c **** * Parameters:
 312:Generated_Source\PSoC5/ADC_SAR_1.c **** *  resolution:
 313:Generated_Source\PSoC5/ADC_SAR_1.c **** *  12 ->    RES12
 314:Generated_Source\PSoC5/ADC_SAR_1.c **** *  10 ->    RES10
 315:Generated_Source\PSoC5/ADC_SAR_1.c **** *  8  ->    RES8
 316:Generated_Source\PSoC5/ADC_SAR_1.c **** *
ARM GAS  C:\Users\kevan\AppData\Local\Temp\ccXb7CWJ.s 			page 7


 317:Generated_Source\PSoC5/ADC_SAR_1.c **** * Return:
 318:Generated_Source\PSoC5/ADC_SAR_1.c **** *  None.
 319:Generated_Source\PSoC5/ADC_SAR_1.c **** *
 320:Generated_Source\PSoC5/ADC_SAR_1.c **** * Side Effects:
 321:Generated_Source\PSoC5/ADC_SAR_1.c **** *  The ADC resolution cannot be changed during a conversion cycle. The
 322:Generated_Source\PSoC5/ADC_SAR_1.c **** *  recommended best practice is to stop conversions with
 323:Generated_Source\PSoC5/ADC_SAR_1.c **** *  ADC_StopConvert(), change the resolution, then restart the
 324:Generated_Source\PSoC5/ADC_SAR_1.c **** *  conversions with ADC_StartConvert().
 325:Generated_Source\PSoC5/ADC_SAR_1.c **** *  If you decide not to stop conversions before calling this API, you
 326:Generated_Source\PSoC5/ADC_SAR_1.c **** *  should use ADC_IsEndConversion() to wait until conversion is complete
 327:Generated_Source\PSoC5/ADC_SAR_1.c **** *  before changing the resolution.
 328:Generated_Source\PSoC5/ADC_SAR_1.c **** *  If you call ADC_SetResolution() during a conversion, the resolution will
 329:Generated_Source\PSoC5/ADC_SAR_1.c **** *  not be changed until the current conversion is complete. Data will not be
 330:Generated_Source\PSoC5/ADC_SAR_1.c **** *  available in the new resolution for another 6 + "New Resolution(in bits)"
 331:Generated_Source\PSoC5/ADC_SAR_1.c **** *  clock cycles.
 332:Generated_Source\PSoC5/ADC_SAR_1.c **** *  You may need add a delay of this number of clock cycles after
 333:Generated_Source\PSoC5/ADC_SAR_1.c **** *  ADC_SetResolution() is called before data is valid again.
 334:Generated_Source\PSoC5/ADC_SAR_1.c **** *  Affects ADC_CountsTo_Volts(), ADC_CountsTo_mVolts(), and
 335:Generated_Source\PSoC5/ADC_SAR_1.c **** *  ADC_CountsTo_uVolts() by calculating the correct conversion between ADC
 336:Generated_Source\PSoC5/ADC_SAR_1.c **** *  counts and the applied input voltage. Calculation depends on resolution,
 337:Generated_Source\PSoC5/ADC_SAR_1.c **** *  input range, and voltage reference.
 338:Generated_Source\PSoC5/ADC_SAR_1.c **** *
 339:Generated_Source\PSoC5/ADC_SAR_1.c **** *******************************************************************************/
 340:Generated_Source\PSoC5/ADC_SAR_1.c **** void ADC_SAR_1_SetResolution(uint8 resolution)
 341:Generated_Source\PSoC5/ADC_SAR_1.c **** {
 342:Generated_Source\PSoC5/ADC_SAR_1.c ****     uint8 tmpReg;
 343:Generated_Source\PSoC5/ADC_SAR_1.c **** 
 344:Generated_Source\PSoC5/ADC_SAR_1.c ****     /* Set SAR ADC resolution and sample width: 18 conversion cycles at 12bits + 1 gap */
 345:Generated_Source\PSoC5/ADC_SAR_1.c ****     switch (resolution)
 346:Generated_Source\PSoC5/ADC_SAR_1.c ****     {
 347:Generated_Source\PSoC5/ADC_SAR_1.c ****         case (uint8)ADC_SAR_1__BITS_12:
 348:Generated_Source\PSoC5/ADC_SAR_1.c ****             tmpReg = ADC_SAR_1_SAR_RESOLUTION_12BIT | ADC_SAR_1_SAR_SAMPLE_WIDTH;
 349:Generated_Source\PSoC5/ADC_SAR_1.c ****             break;
 350:Generated_Source\PSoC5/ADC_SAR_1.c ****         case (uint8)ADC_SAR_1__BITS_10:
 351:Generated_Source\PSoC5/ADC_SAR_1.c ****             tmpReg = ADC_SAR_1_SAR_RESOLUTION_10BIT | ADC_SAR_1_SAR_SAMPLE_WIDTH;
 352:Generated_Source\PSoC5/ADC_SAR_1.c ****             break;
 353:Generated_Source\PSoC5/ADC_SAR_1.c ****         case (uint8)ADC_SAR_1__BITS_8:
 354:Generated_Source\PSoC5/ADC_SAR_1.c ****             tmpReg = ADC_SAR_1_SAR_RESOLUTION_8BIT | ADC_SAR_1_SAR_SAMPLE_WIDTH;
 355:Generated_Source\PSoC5/ADC_SAR_1.c ****             break;
 356:Generated_Source\PSoC5/ADC_SAR_1.c ****         default:
 357:Generated_Source\PSoC5/ADC_SAR_1.c ****             tmpReg = ADC_SAR_1_SAR_RESOLUTION_12BIT | ADC_SAR_1_SAR_SAMPLE_WIDTH;
 358:Generated_Source\PSoC5/ADC_SAR_1.c ****             /* Halt CPU in debug mode if resolution is out of valid range */
 359:Generated_Source\PSoC5/ADC_SAR_1.c ****             CYASSERT(0u != 0u);
 360:Generated_Source\PSoC5/ADC_SAR_1.c ****             break;
 361:Generated_Source\PSoC5/ADC_SAR_1.c ****     }
 362:Generated_Source\PSoC5/ADC_SAR_1.c ****     ADC_SAR_1_SAR_CSR2_REG = tmpReg;
 363:Generated_Source\PSoC5/ADC_SAR_1.c **** 
 364:Generated_Source\PSoC5/ADC_SAR_1.c ****      /* Calculate gain for convert counts to volts */
 365:Generated_Source\PSoC5/ADC_SAR_1.c ****     ADC_SAR_1_CalcGain(resolution);
 366:Generated_Source\PSoC5/ADC_SAR_1.c **** }
 367:Generated_Source\PSoC5/ADC_SAR_1.c **** 
 368:Generated_Source\PSoC5/ADC_SAR_1.c **** 
 369:Generated_Source\PSoC5/ADC_SAR_1.c **** #if(ADC_SAR_1_DEFAULT_CONV_MODE != ADC_SAR_1__HARDWARE_TRIGGER)
 370:Generated_Source\PSoC5/ADC_SAR_1.c **** 
 371:Generated_Source\PSoC5/ADC_SAR_1.c **** 
 372:Generated_Source\PSoC5/ADC_SAR_1.c ****     /*******************************************************************************
 373:Generated_Source\PSoC5/ADC_SAR_1.c ****     * Function Name: ADC_SAR_1_StartConvert
ARM GAS  C:\Users\kevan\AppData\Local\Temp\ccXb7CWJ.s 			page 8


 374:Generated_Source\PSoC5/ADC_SAR_1.c ****     ********************************************************************************
 375:Generated_Source\PSoC5/ADC_SAR_1.c ****     *
 376:Generated_Source\PSoC5/ADC_SAR_1.c ****     * Summary:
 377:Generated_Source\PSoC5/ADC_SAR_1.c ****     *  Forces the ADC to initiate a conversion. In free-running mode, the ADC runs
 378:Generated_Source\PSoC5/ADC_SAR_1.c ****     *  continuously. In software trigger mode, the function also acts as a software
 379:Generated_Source\PSoC5/ADC_SAR_1.c ****     *  version of the SOC and every conversion must be triggered by
 380:Generated_Source\PSoC5/ADC_SAR_1.c ****     *  ADC_SAR_1_StartConvert(). This function is not available when the
 381:Generated_Source\PSoC5/ADC_SAR_1.c ****     *  Hardware Trigger sample mode is selected.
 382:Generated_Source\PSoC5/ADC_SAR_1.c ****     *
 383:Generated_Source\PSoC5/ADC_SAR_1.c ****     * Parameters:
 384:Generated_Source\PSoC5/ADC_SAR_1.c ****     *  None.
 385:Generated_Source\PSoC5/ADC_SAR_1.c ****     *
 386:Generated_Source\PSoC5/ADC_SAR_1.c ****     * Return:
 387:Generated_Source\PSoC5/ADC_SAR_1.c ****     *  None.
 388:Generated_Source\PSoC5/ADC_SAR_1.c ****     *
 389:Generated_Source\PSoC5/ADC_SAR_1.c ****     * Theory:
 390:Generated_Source\PSoC5/ADC_SAR_1.c ****     *  Forces the ADC to initiate a conversion. In Free Running mode, the ADC will
 391:Generated_Source\PSoC5/ADC_SAR_1.c ****     *  run continuously. In a software trigger mode the function also acts as a
 392:Generated_Source\PSoC5/ADC_SAR_1.c ****     *  software version of the SOC. Here every conversion has to be triggered by
 393:Generated_Source\PSoC5/ADC_SAR_1.c ****     *  the routine. This writes into the SOC bit in SAR_CTRL reg.
 394:Generated_Source\PSoC5/ADC_SAR_1.c ****     *
 395:Generated_Source\PSoC5/ADC_SAR_1.c ****     * Side Effects:
 396:Generated_Source\PSoC5/ADC_SAR_1.c ****     *  In a software trigger mode the function switches source for SOF from the
 397:Generated_Source\PSoC5/ADC_SAR_1.c ****     *  external pin to the internal SOF generation. Application should not call
 398:Generated_Source\PSoC5/ADC_SAR_1.c ****     *  StartConvert if external source used for SOF.
 399:Generated_Source\PSoC5/ADC_SAR_1.c ****     *
 400:Generated_Source\PSoC5/ADC_SAR_1.c ****     *******************************************************************************/
 401:Generated_Source\PSoC5/ADC_SAR_1.c ****     void ADC_SAR_1_StartConvert(void)
 402:Generated_Source\PSoC5/ADC_SAR_1.c ****     {
 403:Generated_Source\PSoC5/ADC_SAR_1.c ****         #if(ADC_SAR_1_DEFAULT_CONV_MODE != ADC_SAR_1__FREE_RUNNING)  /* If software triggered mode 
 404:Generated_Source\PSoC5/ADC_SAR_1.c ****             ADC_SAR_1_SAR_CSR0_REG &= (uint8)~ADC_SAR_1_SAR_MX_SOF_UDB;   /* source: SOF bit */
 405:Generated_Source\PSoC5/ADC_SAR_1.c ****         #endif /* End ADC_SAR_1_DEFAULT_CONV_MODE */
 406:Generated_Source\PSoC5/ADC_SAR_1.c **** 
 407:Generated_Source\PSoC5/ADC_SAR_1.c ****         /* Start the conversion */
 408:Generated_Source\PSoC5/ADC_SAR_1.c ****         ADC_SAR_1_SAR_CSR0_REG |= ADC_SAR_1_SAR_SOF_START_CONV;
 409:Generated_Source\PSoC5/ADC_SAR_1.c ****     }
 410:Generated_Source\PSoC5/ADC_SAR_1.c **** 
 411:Generated_Source\PSoC5/ADC_SAR_1.c **** 
 412:Generated_Source\PSoC5/ADC_SAR_1.c ****     /*******************************************************************************
 413:Generated_Source\PSoC5/ADC_SAR_1.c ****     * Function Name: ADC_SAR_1_StopConvert
 414:Generated_Source\PSoC5/ADC_SAR_1.c ****     ********************************************************************************
 415:Generated_Source\PSoC5/ADC_SAR_1.c ****     *
 416:Generated_Source\PSoC5/ADC_SAR_1.c ****     * Summary:
 417:Generated_Source\PSoC5/ADC_SAR_1.c ****     *  Forces the ADC to stop conversions. If a conversion is currently executing,
 418:Generated_Source\PSoC5/ADC_SAR_1.c ****     *  that conversion will complete, but no further conversions will occur. This
 419:Generated_Source\PSoC5/ADC_SAR_1.c ****     *  function is not available when the Hardware Trigger sample mode is selected.
 420:Generated_Source\PSoC5/ADC_SAR_1.c ****     *
 421:Generated_Source\PSoC5/ADC_SAR_1.c ****     * Parameters:
 422:Generated_Source\PSoC5/ADC_SAR_1.c ****     *  None.
 423:Generated_Source\PSoC5/ADC_SAR_1.c ****     *
 424:Generated_Source\PSoC5/ADC_SAR_1.c ****     * Return:
 425:Generated_Source\PSoC5/ADC_SAR_1.c ****     *  None.
 426:Generated_Source\PSoC5/ADC_SAR_1.c ****     *
 427:Generated_Source\PSoC5/ADC_SAR_1.c ****     * Theory:
 428:Generated_Source\PSoC5/ADC_SAR_1.c ****     *  Stops ADC conversion in Free Running mode.
 429:Generated_Source\PSoC5/ADC_SAR_1.c ****     *
 430:Generated_Source\PSoC5/ADC_SAR_1.c ****     * Side Effects:
ARM GAS  C:\Users\kevan\AppData\Local\Temp\ccXb7CWJ.s 			page 9


 431:Generated_Source\PSoC5/ADC_SAR_1.c ****     *  In Software Trigger sample mode, this function sets a software version of the
 432:Generated_Source\PSoC5/ADC_SAR_1.c ****     *  SOC to low level and switches the SOC source to hardware SOC input.
 433:Generated_Source\PSoC5/ADC_SAR_1.c ****     *
 434:Generated_Source\PSoC5/ADC_SAR_1.c ****     *******************************************************************************/
 435:Generated_Source\PSoC5/ADC_SAR_1.c ****     void ADC_SAR_1_StopConvert(void)
 436:Generated_Source\PSoC5/ADC_SAR_1.c ****     {
 437:Generated_Source\PSoC5/ADC_SAR_1.c ****         /* Stop all conversions */
 438:Generated_Source\PSoC5/ADC_SAR_1.c ****         ADC_SAR_1_SAR_CSR0_REG &= (uint8)~ADC_SAR_1_SAR_SOF_START_CONV;
 439:Generated_Source\PSoC5/ADC_SAR_1.c **** 
 440:Generated_Source\PSoC5/ADC_SAR_1.c ****         #if(ADC_SAR_1_DEFAULT_CONV_MODE != ADC_SAR_1__FREE_RUNNING)  /* If software triggered mode 
 441:Generated_Source\PSoC5/ADC_SAR_1.c ****             /* Return source to UDB for hardware SOF signal */
 442:Generated_Source\PSoC5/ADC_SAR_1.c ****             ADC_SAR_1_SAR_CSR0_REG |= ADC_SAR_1_SAR_MX_SOF_UDB;    /* source: UDB */
 443:Generated_Source\PSoC5/ADC_SAR_1.c ****         #endif /* End ADC_SAR_1_DEFAULT_CONV_MODE */
 444:Generated_Source\PSoC5/ADC_SAR_1.c **** 
 445:Generated_Source\PSoC5/ADC_SAR_1.c ****     }
 446:Generated_Source\PSoC5/ADC_SAR_1.c **** 
 447:Generated_Source\PSoC5/ADC_SAR_1.c **** #endif /* End ADC_SAR_1_DEFAULT_CONV_MODE != ADC_SAR_1__HARDWARE_TRIGGER */
 448:Generated_Source\PSoC5/ADC_SAR_1.c **** 
 449:Generated_Source\PSoC5/ADC_SAR_1.c **** 
 450:Generated_Source\PSoC5/ADC_SAR_1.c **** /*******************************************************************************
 451:Generated_Source\PSoC5/ADC_SAR_1.c **** * Function Name: ADC_SAR_1_IsEndConversion
 452:Generated_Source\PSoC5/ADC_SAR_1.c **** ********************************************************************************
 453:Generated_Source\PSoC5/ADC_SAR_1.c **** *
 454:Generated_Source\PSoC5/ADC_SAR_1.c **** * Summary:
 455:Generated_Source\PSoC5/ADC_SAR_1.c **** *  Immediately returns the status of the conversion or does not return
 456:Generated_Source\PSoC5/ADC_SAR_1.c **** *  (blocking) until the conversion completes, depending on the retMode
 457:Generated_Source\PSoC5/ADC_SAR_1.c **** *  parameter.
 458:Generated_Source\PSoC5/ADC_SAR_1.c **** *
 459:Generated_Source\PSoC5/ADC_SAR_1.c **** * Parameters:
 460:Generated_Source\PSoC5/ADC_SAR_1.c **** *  retMode:  Check conversion return mode.
 461:Generated_Source\PSoC5/ADC_SAR_1.c **** *   ADC_SAR_1_RETURN_STATUS: Immediately returns the status. If the
 462:Generated_Source\PSoC5/ADC_SAR_1.c **** *     value returned is zero, the conversion is not complete, and this function
 463:Generated_Source\PSoC5/ADC_SAR_1.c **** *     should be retried until a nonzero result is returned.
 464:Generated_Source\PSoC5/ADC_SAR_1.c **** *   ADC_SAR_1_WAIT_FOR_RESULT: Does not return a result until the ADC
 465:Generated_Source\PSoC5/ADC_SAR_1.c **** *     conversion is complete.
 466:Generated_Source\PSoC5/ADC_SAR_1.c **** *
 467:Generated_Source\PSoC5/ADC_SAR_1.c **** * Return:
 468:Generated_Source\PSoC5/ADC_SAR_1.c **** *  (uint8)  0 =>  The ADC is still calculating the last result.
 469:Generated_Source\PSoC5/ADC_SAR_1.c **** *           1 =>  The last conversion is complete.
 470:Generated_Source\PSoC5/ADC_SAR_1.c **** *
 471:Generated_Source\PSoC5/ADC_SAR_1.c **** * Side Effects:
 472:Generated_Source\PSoC5/ADC_SAR_1.c **** *  This function reads the end of conversion status, which is cleared on read.
 473:Generated_Source\PSoC5/ADC_SAR_1.c **** *
 474:Generated_Source\PSoC5/ADC_SAR_1.c **** *******************************************************************************/
 475:Generated_Source\PSoC5/ADC_SAR_1.c **** uint8 ADC_SAR_1_IsEndConversion(uint8 retMode)
 476:Generated_Source\PSoC5/ADC_SAR_1.c **** {
 477:Generated_Source\PSoC5/ADC_SAR_1.c ****     uint8 status;
 478:Generated_Source\PSoC5/ADC_SAR_1.c **** 
 479:Generated_Source\PSoC5/ADC_SAR_1.c ****     do
 480:Generated_Source\PSoC5/ADC_SAR_1.c ****     {
 481:Generated_Source\PSoC5/ADC_SAR_1.c ****         status = ADC_SAR_1_SAR_CSR1_REG & ADC_SAR_1_SAR_EOF_1;
 482:Generated_Source\PSoC5/ADC_SAR_1.c ****     } while ((status != ADC_SAR_1_SAR_EOF_1) && (retMode == ADC_SAR_1_WAIT_FOR_RESULT));
 483:Generated_Source\PSoC5/ADC_SAR_1.c ****     /* If convertion complete, wait until EOF bit released */
 484:Generated_Source\PSoC5/ADC_SAR_1.c ****     if(status == ADC_SAR_1_SAR_EOF_1)
 485:Generated_Source\PSoC5/ADC_SAR_1.c ****     {
 486:Generated_Source\PSoC5/ADC_SAR_1.c ****         /* wait one ADC clock to let the EOC status bit release */
 487:Generated_Source\PSoC5/ADC_SAR_1.c ****         CyDelayUs(1u);
ARM GAS  C:\Users\kevan\AppData\Local\Temp\ccXb7CWJ.s 			page 10


 488:Generated_Source\PSoC5/ADC_SAR_1.c ****         /* Do the unconditional read operation of the CSR1 register to make sure the EOC bit has be
 489:Generated_Source\PSoC5/ADC_SAR_1.c ****         CY_GET_REG8(ADC_SAR_1_SAR_CSR1_PTR);
 490:Generated_Source\PSoC5/ADC_SAR_1.c ****     }
 491:Generated_Source\PSoC5/ADC_SAR_1.c **** 
 492:Generated_Source\PSoC5/ADC_SAR_1.c ****     return(status);
 493:Generated_Source\PSoC5/ADC_SAR_1.c **** }
 494:Generated_Source\PSoC5/ADC_SAR_1.c **** 
 495:Generated_Source\PSoC5/ADC_SAR_1.c **** 
 496:Generated_Source\PSoC5/ADC_SAR_1.c **** /*******************************************************************************
 497:Generated_Source\PSoC5/ADC_SAR_1.c **** * Function Name: ADC_SAR_1_GetResult8
 498:Generated_Source\PSoC5/ADC_SAR_1.c **** ********************************************************************************
 499:Generated_Source\PSoC5/ADC_SAR_1.c **** *
 500:Generated_Source\PSoC5/ADC_SAR_1.c **** * Summary:
 501:Generated_Source\PSoC5/ADC_SAR_1.c **** *  Returns the result of an 8-bit conversion. If the resolution is set greater
 502:Generated_Source\PSoC5/ADC_SAR_1.c **** *  than 8 bits, the function returns the LSB of the result.
 503:Generated_Source\PSoC5/ADC_SAR_1.c **** *  ADC_SAR_1_IsEndConversion() should be called to verify that the data
 504:Generated_Source\PSoC5/ADC_SAR_1.c **** *   sample is ready.
 505:Generated_Source\PSoC5/ADC_SAR_1.c **** *
 506:Generated_Source\PSoC5/ADC_SAR_1.c **** * Parameters:
 507:Generated_Source\PSoC5/ADC_SAR_1.c **** *  None.
 508:Generated_Source\PSoC5/ADC_SAR_1.c **** *
 509:Generated_Source\PSoC5/ADC_SAR_1.c **** * Return:
 510:Generated_Source\PSoC5/ADC_SAR_1.c **** *  The LSB of the last ADC conversion.
 511:Generated_Source\PSoC5/ADC_SAR_1.c **** *
 512:Generated_Source\PSoC5/ADC_SAR_1.c **** * Global Variables:
 513:Generated_Source\PSoC5/ADC_SAR_1.c **** *  ADC_SAR_1_shift - used to convert the ADC counts to the 2s
 514:Generated_Source\PSoC5/ADC_SAR_1.c **** *  compliment form.
 515:Generated_Source\PSoC5/ADC_SAR_1.c **** *
 516:Generated_Source\PSoC5/ADC_SAR_1.c **** * Side Effects:
 517:Generated_Source\PSoC5/ADC_SAR_1.c **** *  Converts the ADC counts to the 2s complement form.
 518:Generated_Source\PSoC5/ADC_SAR_1.c **** *
 519:Generated_Source\PSoC5/ADC_SAR_1.c **** *******************************************************************************/
 520:Generated_Source\PSoC5/ADC_SAR_1.c **** int8 ADC_SAR_1_GetResult8( void )
 521:Generated_Source\PSoC5/ADC_SAR_1.c **** {
 522:Generated_Source\PSoC5/ADC_SAR_1.c ****     return( (int8)ADC_SAR_1_SAR_WRK0_REG - (int8)ADC_SAR_1_shift);
 523:Generated_Source\PSoC5/ADC_SAR_1.c **** }
 524:Generated_Source\PSoC5/ADC_SAR_1.c **** 
 525:Generated_Source\PSoC5/ADC_SAR_1.c **** 
 526:Generated_Source\PSoC5/ADC_SAR_1.c **** /*******************************************************************************
 527:Generated_Source\PSoC5/ADC_SAR_1.c **** * Function Name: ADC_SAR_1_GetResult16
 528:Generated_Source\PSoC5/ADC_SAR_1.c **** ********************************************************************************
 529:Generated_Source\PSoC5/ADC_SAR_1.c **** *
 530:Generated_Source\PSoC5/ADC_SAR_1.c **** * Summary:
 531:Generated_Source\PSoC5/ADC_SAR_1.c **** *  Returns a 16-bit result for a conversion with a result that has a resolution
 532:Generated_Source\PSoC5/ADC_SAR_1.c **** *  of 8 to 12 bits.
 533:Generated_Source\PSoC5/ADC_SAR_1.c **** *  ADC_SAR_1_IsEndConversion() should be called to verify that the data
 534:Generated_Source\PSoC5/ADC_SAR_1.c **** *   sample is ready
 535:Generated_Source\PSoC5/ADC_SAR_1.c **** *
 536:Generated_Source\PSoC5/ADC_SAR_1.c **** * Parameters:
 537:Generated_Source\PSoC5/ADC_SAR_1.c **** *  None.
 538:Generated_Source\PSoC5/ADC_SAR_1.c **** *
 539:Generated_Source\PSoC5/ADC_SAR_1.c **** * Return:
 540:Generated_Source\PSoC5/ADC_SAR_1.c **** *  The 16-bit result of the last ADC conversion
 541:Generated_Source\PSoC5/ADC_SAR_1.c **** *
 542:Generated_Source\PSoC5/ADC_SAR_1.c **** * Global Variables:
 543:Generated_Source\PSoC5/ADC_SAR_1.c **** *  ADC_SAR_1_shift - used to convert the ADC counts to the 2s
 544:Generated_Source\PSoC5/ADC_SAR_1.c **** *  compliment form.
ARM GAS  C:\Users\kevan\AppData\Local\Temp\ccXb7CWJ.s 			page 11


 545:Generated_Source\PSoC5/ADC_SAR_1.c **** *
 546:Generated_Source\PSoC5/ADC_SAR_1.c **** * Side Effects:
 547:Generated_Source\PSoC5/ADC_SAR_1.c **** *  Converts the ADC counts to the 2s complement form.
 548:Generated_Source\PSoC5/ADC_SAR_1.c **** *
 549:Generated_Source\PSoC5/ADC_SAR_1.c **** *******************************************************************************/
 550:Generated_Source\PSoC5/ADC_SAR_1.c **** int16 ADC_SAR_1_GetResult16( void )
 551:Generated_Source\PSoC5/ADC_SAR_1.c **** {
 552:Generated_Source\PSoC5/ADC_SAR_1.c ****     uint16 res;
 553:Generated_Source\PSoC5/ADC_SAR_1.c **** 
 554:Generated_Source\PSoC5/ADC_SAR_1.c ****     res = CY_GET_REG16(ADC_SAR_1_SAR_WRK_PTR);
 555:Generated_Source\PSoC5/ADC_SAR_1.c **** 
 556:Generated_Source\PSoC5/ADC_SAR_1.c ****     return( (int16)res - ADC_SAR_1_shift );
 557:Generated_Source\PSoC5/ADC_SAR_1.c **** }
 558:Generated_Source\PSoC5/ADC_SAR_1.c **** 
 559:Generated_Source\PSoC5/ADC_SAR_1.c **** 
 560:Generated_Source\PSoC5/ADC_SAR_1.c **** /*******************************************************************************
 561:Generated_Source\PSoC5/ADC_SAR_1.c **** * Function Name: ADC_SAR_1_SetOffset
 562:Generated_Source\PSoC5/ADC_SAR_1.c **** ********************************************************************************
 563:Generated_Source\PSoC5/ADC_SAR_1.c **** *
 564:Generated_Source\PSoC5/ADC_SAR_1.c **** * Summary:
 565:Generated_Source\PSoC5/ADC_SAR_1.c **** *  Sets the ADC offset, which is used by ADC_SAR_1_CountsTo_Volts(),
 566:Generated_Source\PSoC5/ADC_SAR_1.c **** *  ADC_SAR_1_CountsTo_mVolts(), and ADC_SAR_1_CountsTo_uVolts()
 567:Generated_Source\PSoC5/ADC_SAR_1.c **** *  to subtract the offset from the given reading before calculating the voltage
 568:Generated_Source\PSoC5/ADC_SAR_1.c **** *  conversion.
 569:Generated_Source\PSoC5/ADC_SAR_1.c **** *
 570:Generated_Source\PSoC5/ADC_SAR_1.c **** * Parameters:
 571:Generated_Source\PSoC5/ADC_SAR_1.c **** *  int16: This value is measured when the inputs are shorted or connected to
 572:Generated_Source\PSoC5/ADC_SAR_1.c ****    the same input voltage.
 573:Generated_Source\PSoC5/ADC_SAR_1.c **** *
 574:Generated_Source\PSoC5/ADC_SAR_1.c **** * Return:
 575:Generated_Source\PSoC5/ADC_SAR_1.c **** *  None.
 576:Generated_Source\PSoC5/ADC_SAR_1.c **** *
 577:Generated_Source\PSoC5/ADC_SAR_1.c **** * Global Variables:
 578:Generated_Source\PSoC5/ADC_SAR_1.c **** *  The ADC_SAR_1_offset variable modified. This variable is used for
 579:Generated_Source\PSoC5/ADC_SAR_1.c **** *  offset calibration purpose.
 580:Generated_Source\PSoC5/ADC_SAR_1.c **** *  Affects the ADC_SAR_1_CountsTo_Volts,
 581:Generated_Source\PSoC5/ADC_SAR_1.c **** *  ADC_SAR_1_CountsTo_mVolts, ADC_SAR_1_CountsTo_uVolts functions
 582:Generated_Source\PSoC5/ADC_SAR_1.c **** *  by subtracting the given offset.
 583:Generated_Source\PSoC5/ADC_SAR_1.c **** *
 584:Generated_Source\PSoC5/ADC_SAR_1.c **** *******************************************************************************/
 585:Generated_Source\PSoC5/ADC_SAR_1.c **** void ADC_SAR_1_SetOffset(int16 offset)
 586:Generated_Source\PSoC5/ADC_SAR_1.c **** {
 587:Generated_Source\PSoC5/ADC_SAR_1.c ****     ADC_SAR_1_offset = offset;
 588:Generated_Source\PSoC5/ADC_SAR_1.c **** }
 589:Generated_Source\PSoC5/ADC_SAR_1.c **** 
 590:Generated_Source\PSoC5/ADC_SAR_1.c **** 
 591:Generated_Source\PSoC5/ADC_SAR_1.c **** /*******************************************************************************
 592:Generated_Source\PSoC5/ADC_SAR_1.c **** * Function Name: ADC_SAR_1_CalcGain
 593:Generated_Source\PSoC5/ADC_SAR_1.c **** ********************************************************************************
 594:Generated_Source\PSoC5/ADC_SAR_1.c **** *
 595:Generated_Source\PSoC5/ADC_SAR_1.c **** * Summary:
 596:Generated_Source\PSoC5/ADC_SAR_1.c **** *  This function calculates the ADC gain in counts per 10 volt.
 597:Generated_Source\PSoC5/ADC_SAR_1.c **** *
 598:Generated_Source\PSoC5/ADC_SAR_1.c **** * Parameters:
 599:Generated_Source\PSoC5/ADC_SAR_1.c **** *  uint8: resolution
 600:Generated_Source\PSoC5/ADC_SAR_1.c **** *
 601:Generated_Source\PSoC5/ADC_SAR_1.c **** * Return:
ARM GAS  C:\Users\kevan\AppData\Local\Temp\ccXb7CWJ.s 			page 12


 602:Generated_Source\PSoC5/ADC_SAR_1.c **** *  None.
 603:Generated_Source\PSoC5/ADC_SAR_1.c **** *
 604:Generated_Source\PSoC5/ADC_SAR_1.c **** * Global Variables:
 605:Generated_Source\PSoC5/ADC_SAR_1.c **** *  ADC_SAR_1_shift variable initialized. This variable is used to
 606:Generated_Source\PSoC5/ADC_SAR_1.c **** *  convert the ADC counts to the 2s compliment form.
 607:Generated_Source\PSoC5/ADC_SAR_1.c **** *  ADC_SAR_1_countsPer10Volt variable initialized. This variable is used
 608:Generated_Source\PSoC5/ADC_SAR_1.c **** *  for gain calibration purpose.
 609:Generated_Source\PSoC5/ADC_SAR_1.c **** *
 610:Generated_Source\PSoC5/ADC_SAR_1.c **** *******************************************************************************/
 611:Generated_Source\PSoC5/ADC_SAR_1.c **** static void ADC_SAR_1_CalcGain( uint8 resolution )
 612:Generated_Source\PSoC5/ADC_SAR_1.c **** {
  27              		.loc 1 612 0
  28              		.cfi_startproc
  29              		@ args = 0, pretend = 0, frame = 0
  30              		@ frame_needed = 0, uses_anonymous_args = 0
  31              	.LVL0:
  32 0000 08B5     		push	{r3, lr}
  33              		.cfi_def_cfa_offset 8
  34              		.cfi_offset 3, -8
  35              		.cfi_offset 14, -4
 613:Generated_Source\PSoC5/ADC_SAR_1.c ****     int32 counts;
 614:Generated_Source\PSoC5/ADC_SAR_1.c ****     #if(!((ADC_SAR_1_DEFAULT_RANGE == ADC_SAR_1__VSS_TO_VREF) || \
 615:Generated_Source\PSoC5/ADC_SAR_1.c ****          (ADC_SAR_1_DEFAULT_RANGE == ADC_SAR_1__VSSA_TO_VDDA) || \
 616:Generated_Source\PSoC5/ADC_SAR_1.c ****          (ADC_SAR_1_DEFAULT_RANGE == ADC_SAR_1__VSSA_TO_VDAC)) )
 617:Generated_Source\PSoC5/ADC_SAR_1.c ****         uint16 diff_zero;
 618:Generated_Source\PSoC5/ADC_SAR_1.c ****     #endif /* End ADC_SAR_1_DEFAULT_RANGE */
 619:Generated_Source\PSoC5/ADC_SAR_1.c **** 
 620:Generated_Source\PSoC5/ADC_SAR_1.c ****     switch (resolution)
  36              		.loc 1 620 0
  37 0002 0A28     		cmp	r0, #10
  38 0004 0FD0     		beq	.L6
  39 0006 0C28     		cmp	r0, #12
  40 0008 02D0     		beq	.L4
  41 000a 0828     		cmp	r0, #8
  42 000c 06D1     		bne	.L7
  43 000e 02E0     		b	.L5
  44              	.L4:
 621:Generated_Source\PSoC5/ADC_SAR_1.c ****     {
 622:Generated_Source\PSoC5/ADC_SAR_1.c ****         case (uint8)ADC_SAR_1__BITS_12:
 623:Generated_Source\PSoC5/ADC_SAR_1.c ****             counts = (int32)ADC_SAR_1_SAR_WRK_MAX_12BIT;
  45              		.loc 1 623 0
  46 0010 4FF48052 		mov	r2, #4096
  47 0014 09E0     		b	.L3
  48              	.L5:
  49              	.LVL1:
 624:Generated_Source\PSoC5/ADC_SAR_1.c ****             #if(!((ADC_SAR_1_DEFAULT_RANGE == ADC_SAR_1__VSS_TO_VREF) || \
 625:Generated_Source\PSoC5/ADC_SAR_1.c ****                  (ADC_SAR_1_DEFAULT_RANGE == ADC_SAR_1__VSSA_TO_VDDA) || \
 626:Generated_Source\PSoC5/ADC_SAR_1.c ****                  (ADC_SAR_1_DEFAULT_RANGE == ADC_SAR_1__VSSA_TO_VDAC)) )
 627:Generated_Source\PSoC5/ADC_SAR_1.c ****                 diff_zero = ADC_SAR_1_SAR_DIFF_SHIFT;
 628:Generated_Source\PSoC5/ADC_SAR_1.c ****             #endif /* End ADC_SAR_1_DEFAULT_RANGE */
 629:Generated_Source\PSoC5/ADC_SAR_1.c ****             break;
 630:Generated_Source\PSoC5/ADC_SAR_1.c ****         case (uint8)ADC_SAR_1__BITS_10:
 631:Generated_Source\PSoC5/ADC_SAR_1.c ****             counts = (int32)ADC_SAR_1_SAR_WRK_MAX_10BIT;
 632:Generated_Source\PSoC5/ADC_SAR_1.c ****             #if(!((ADC_SAR_1_DEFAULT_RANGE == ADC_SAR_1__VSS_TO_VREF) || \
 633:Generated_Source\PSoC5/ADC_SAR_1.c ****                  (ADC_SAR_1_DEFAULT_RANGE == ADC_SAR_1__VSSA_TO_VDDA) || \
 634:Generated_Source\PSoC5/ADC_SAR_1.c ****                  (ADC_SAR_1_DEFAULT_RANGE == ADC_SAR_1__VSSA_TO_VDAC)) )
 635:Generated_Source\PSoC5/ADC_SAR_1.c ****                 diff_zero = ADC_SAR_1_SAR_DIFF_SHIFT >> 2u;
ARM GAS  C:\Users\kevan\AppData\Local\Temp\ccXb7CWJ.s 			page 13


 636:Generated_Source\PSoC5/ADC_SAR_1.c ****             #endif /* End ADC_SAR_1_DEFAULT_RANGE */
 637:Generated_Source\PSoC5/ADC_SAR_1.c ****             break;
 638:Generated_Source\PSoC5/ADC_SAR_1.c ****         case (uint8)ADC_SAR_1__BITS_8:
 639:Generated_Source\PSoC5/ADC_SAR_1.c ****             counts = (int32)ADC_SAR_1_SAR_WRK_MAX_8BIT;
  50              		.loc 1 639 0
  51 0016 4FF48072 		mov	r2, #256
 640:Generated_Source\PSoC5/ADC_SAR_1.c ****             #if(!((ADC_SAR_1_DEFAULT_RANGE == ADC_SAR_1__VSS_TO_VREF) || \
 641:Generated_Source\PSoC5/ADC_SAR_1.c ****                  (ADC_SAR_1_DEFAULT_RANGE == ADC_SAR_1__VSSA_TO_VDDA) || \
 642:Generated_Source\PSoC5/ADC_SAR_1.c ****                  (ADC_SAR_1_DEFAULT_RANGE == ADC_SAR_1__VSSA_TO_VDAC)) )
 643:Generated_Source\PSoC5/ADC_SAR_1.c ****                 diff_zero = ADC_SAR_1_SAR_DIFF_SHIFT >> 4u;
 644:Generated_Source\PSoC5/ADC_SAR_1.c ****             #endif /* End ADC_SAR_1_DEFAULT_RANGE */
 645:Generated_Source\PSoC5/ADC_SAR_1.c ****             break;
  52              		.loc 1 645 0
  53 001a 06E0     		b	.L3
  54              	.LVL2:
  55              	.L7:
 646:Generated_Source\PSoC5/ADC_SAR_1.c ****         default: /* Halt CPU in debug mode if resolution is out of valid range */
 647:Generated_Source\PSoC5/ADC_SAR_1.c ****             counts = 0;
 648:Generated_Source\PSoC5/ADC_SAR_1.c ****             #if(!((ADC_SAR_1_DEFAULT_RANGE == ADC_SAR_1__VSS_TO_VREF) || \
 649:Generated_Source\PSoC5/ADC_SAR_1.c ****                  (ADC_SAR_1_DEFAULT_RANGE == ADC_SAR_1__VSSA_TO_VDDA) || \
 650:Generated_Source\PSoC5/ADC_SAR_1.c ****                  (ADC_SAR_1_DEFAULT_RANGE == ADC_SAR_1__VSSA_TO_VDAC)) )
 651:Generated_Source\PSoC5/ADC_SAR_1.c ****                 diff_zero = 0u;
 652:Generated_Source\PSoC5/ADC_SAR_1.c ****             #endif /* End ADC_SAR_1_DEFAULT_RANGE */
 653:Generated_Source\PSoC5/ADC_SAR_1.c ****             CYASSERT(0u != 0u);
  56              		.loc 1 653 0
  57 001c 0020     		movs	r0, #0
  58              	.LVL3:
  59 001e FFF7FEFF 		bl	CyHalt
  60              	.LVL4:
 647:Generated_Source\PSoC5/ADC_SAR_1.c ****             #if(!((ADC_SAR_1_DEFAULT_RANGE == ADC_SAR_1__VSS_TO_VREF) || \
  61              		.loc 1 647 0
  62 0022 0022     		movs	r2, #0
  63 0024 01E0     		b	.L3
  64              	.LVL5:
  65              	.L6:
 631:Generated_Source\PSoC5/ADC_SAR_1.c ****             #if(!((ADC_SAR_1_DEFAULT_RANGE == ADC_SAR_1__VSS_TO_VREF) || \
  66              		.loc 1 631 0
  67 0026 4FF48062 		mov	r2, #1024
  68              	.LVL6:
  69              	.L3:
 654:Generated_Source\PSoC5/ADC_SAR_1.c ****             break;
 655:Generated_Source\PSoC5/ADC_SAR_1.c ****     }
 656:Generated_Source\PSoC5/ADC_SAR_1.c ****     ADC_SAR_1_countsPerVolt = 0; /* Clear obsolete variable */
  70              		.loc 1 656 0
  71 002a 0021     		movs	r1, #0
  72 002c 094B     		ldr	r3, .L9
  73 002e 1980     		strh	r1, [r3]	@ movhi
 657:Generated_Source\PSoC5/ADC_SAR_1.c ****     /* Calculate gain in counts per 10 volts with rounding */
 658:Generated_Source\PSoC5/ADC_SAR_1.c ****     ADC_SAR_1_countsPer10Volt = (((counts * ADC_SAR_1_10MV_COUNTS) +
  74              		.loc 1 658 0
  75 0030 42F21073 		movw	r3, #10000
  76 0034 03FB02F3 		mul	r3, r3, r2
  77 0038 03F6C413 		addw	r3, r3, #2500
 659:Generated_Source\PSoC5/ADC_SAR_1.c ****                         ADC_SAR_1_DEFAULT_REF_VOLTAGE_MV) / (ADC_SAR_1_DEFAULT_REF_VOLTAGE_MV * 2))
  78              		.loc 1 659 0
  79 003c 064A     		ldr	r2, .L9+4
  80              	.LVL7:
ARM GAS  C:\Users\kevan\AppData\Local\Temp\ccXb7CWJ.s 			page 14


  81 003e 82FB0302 		smull	r0, r2, r2, r3
  82 0042 DB17     		asrs	r3, r3, #31
  83 0044 C3EBE223 		rsb	r3, r3, r2, asr #11
 658:Generated_Source\PSoC5/ADC_SAR_1.c ****                         ADC_SAR_1_DEFAULT_REF_VOLTAGE_MV) / (ADC_SAR_1_DEFAULT_REF_VOLTAGE_MV * 2))
  84              		.loc 1 658 0
  85 0048 044A     		ldr	r2, .L9+8
  86 004a 1360     		str	r3, [r2]
 660:Generated_Source\PSoC5/ADC_SAR_1.c **** 
 661:Generated_Source\PSoC5/ADC_SAR_1.c ****     #if( (ADC_SAR_1_DEFAULT_RANGE == ADC_SAR_1__VSS_TO_VREF) || \
 662:Generated_Source\PSoC5/ADC_SAR_1.c ****          (ADC_SAR_1_DEFAULT_RANGE == ADC_SAR_1__VSSA_TO_VDDA) || \
 663:Generated_Source\PSoC5/ADC_SAR_1.c ****          (ADC_SAR_1_DEFAULT_RANGE == ADC_SAR_1__VSSA_TO_VDAC) )
 664:Generated_Source\PSoC5/ADC_SAR_1.c ****         ADC_SAR_1_shift = 0;
  87              		.loc 1 664 0
  88 004c 044B     		ldr	r3, .L9+12
  89 004e 1980     		strh	r1, [r3]	@ movhi
  90 0050 08BD     		pop	{r3, pc}
  91              	.L10:
  92 0052 00BF     		.align	2
  93              	.L9:
  94 0054 00000000 		.word	ADC_SAR_1_countsPerVolt
  95 0058 AD8BDB68 		.word	1759218605
  96 005c 00000000 		.word	ADC_SAR_1_countsPer10Volt
  97 0060 00000000 		.word	ADC_SAR_1_shift
  98              		.cfi_endproc
  99              	.LFE12:
 100              		.size	ADC_SAR_1_CalcGain, .-ADC_SAR_1_CalcGain
 101              		.section	.text.ADC_SAR_1_Enable,"ax",%progbits
 102              		.align	2
 103              		.global	ADC_SAR_1_Enable
 104              		.thumb
 105              		.thumb_func
 106              		.type	ADC_SAR_1_Enable, %function
 107              	ADC_SAR_1_Enable:
 108              	.LFB2:
 144:Generated_Source\PSoC5/ADC_SAR_1.c ****     uint8 tmpReg;
 109              		.loc 1 144 0
 110              		.cfi_startproc
 111              		@ args = 0, pretend = 0, frame = 0
 112              		@ frame_needed = 0, uses_anonymous_args = 0
 113 0000 10B5     		push	{r4, lr}
 114              		.cfi_def_cfa_offset 8
 115              		.cfi_offset 4, -8
 116              		.cfi_offset 14, -4
 147:Generated_Source\PSoC5/ADC_SAR_1.c **** 
 117              		.loc 1 147 0
 118 0002 FFF7FEFF 		bl	CyEnterCriticalSection
 119              	.LVL8:
 120 0006 0446     		mov	r4, r0
 121              	.LVL9:
 150:Generated_Source\PSoC5/ADC_SAR_1.c **** 
 122              		.loc 1 150 0
 123 0008 1E4A     		ldr	r2, .L13
 124 000a 1378     		ldrb	r3, [r2]	@ zero_extendqisi2
 125 000c 43F00103 		orr	r3, r3, #1
 126 0010 1370     		strb	r3, [r2]
 153:Generated_Source\PSoC5/ADC_SAR_1.c **** 
 127              		.loc 1 153 0
ARM GAS  C:\Users\kevan\AppData\Local\Temp\ccXb7CWJ.s 			page 15


 128 0012 1032     		adds	r2, r2, #16
 129 0014 1378     		ldrb	r3, [r2]	@ zero_extendqisi2
 130 0016 43F00103 		orr	r3, r3, #1
 131 001a 1370     		strb	r3, [r2]
 157:Generated_Source\PSoC5/ADC_SAR_1.c ****         ADC_SAR_1_STBY_PWRMGR_CLK_REG |= ADC_SAR_1_STBY_PWR_CLK_EN;
 132              		.loc 1 157 0
 133 001c 1A3A     		subs	r2, r2, #26
 134 001e 1378     		ldrb	r3, [r2]	@ zero_extendqisi2
 135 0020 43F00203 		orr	r3, r3, #2
 136 0024 1370     		strb	r3, [r2]
 158:Generated_Source\PSoC5/ADC_SAR_1.c ****     #endif /* End ADC_SAR_1_DEFAULT_INTERNAL_CLK */
 137              		.loc 1 158 0
 138 0026 1032     		adds	r2, r2, #16
 139 0028 1378     		ldrb	r3, [r2]	@ zero_extendqisi2
 140 002a 43F00203 		orr	r3, r3, #2
 141 002e 1370     		strb	r3, [r2]
 162:Generated_Source\PSoC5/ADC_SAR_1.c ****     tmpReg |= ADC_SAR_1_SAR_EN_BUF_VCM_EN;
 142              		.loc 1 162 0
 143 0030 02F5AA52 		add	r2, r2, #5440
 144 0034 1232     		adds	r2, r2, #18
 145 0036 1378     		ldrb	r3, [r2]	@ zero_extendqisi2
 146              	.LVL10:
 169:Generated_Source\PSoC5/ADC_SAR_1.c ****     #endif /* ADC_SAR_1_DEFAULT_REFERENCE == ADC_SAR_1__EXT_REF */
 147              		.loc 1 169 0
 148 0038 43F00303 		orr	r3, r3, #3
 149              	.LVL11:
 171:Generated_Source\PSoC5/ADC_SAR_1.c **** 
 150              		.loc 1 171 0
 151 003c 1370     		strb	r3, [r2]
 184:Generated_Source\PSoC5/ADC_SAR_1.c ****         #endif /* ADC_SAR_1_DEFAULT_REFERENCE == ADC_SAR_1__INT_REF_NOT_BYPASSED */
 152              		.loc 1 184 0
 153 003e 0422     		movs	r2, #4
 154 0040 114B     		ldr	r3, .L13+4
 155              	.LVL12:
 156 0042 1A70     		strb	r2, [r3]
 157              	.LVL13:
 192:Generated_Source\PSoC5/ADC_SAR_1.c ****     #endif /* ADC_SAR_1_HIGH_POWER_PULSE == 0u */
 158              		.loc 1 192 0
 159 0044 013B     		subs	r3, r3, #1
 160 0046 1A78     		ldrb	r2, [r3]	@ zero_extendqisi2
 161 0048 42F04002 		orr	r2, r2, #64
 162 004c 1A70     		strb	r2, [r3]
 202:Generated_Source\PSoC5/ADC_SAR_1.c ****     #endif /* ADC_SAR_1_HIGH_POWER_PULSE == 0u */
 163              		.loc 1 202 0
 164 004e 1A78     		ldrb	r2, [r3]	@ zero_extendqisi2
 165 0050 02F0FC02 		and	r2, r2, #252
 166 0054 1A70     		strb	r2, [r3]
 206:Generated_Source\PSoC5/ADC_SAR_1.c ****     /* SAR_HIZ_CLEAR:   Should not be used for LP */
 167              		.loc 1 206 0
 168 0056 CE22     		movs	r2, #206
 169 0058 053B     		subs	r3, r3, #5
 170 005a 1A70     		strb	r2, [r3]
 218:Generated_Source\PSoC5/ADC_SAR_1.c **** 
 171              		.loc 1 218 0
 172 005c 0222     		movs	r2, #2
 173 005e A3F59753 		sub	r3, r3, #4832
 174 0062 0C3B     		subs	r3, r3, #12
ARM GAS  C:\Users\kevan\AppData\Local\Temp\ccXb7CWJ.s 			page 16


 175 0064 1A70     		strb	r2, [r3]
 221:Generated_Source\PSoC5/ADC_SAR_1.c **** 
 176              		.loc 1 221 0
 177 0066 094A     		ldr	r2, .L13+8
 178 0068 1378     		ldrb	r3, [r2]	@ zero_extendqisi2
 179 006a 43F00803 		orr	r3, r3, #8
 180 006e 1370     		strb	r3, [r2]
 223:Generated_Source\PSoC5/ADC_SAR_1.c **** 
 181              		.loc 1 223 0
 182 0070 0A20     		movs	r0, #10
 183 0072 FFF7FEFF 		bl	CyDelayUs
 184              	.LVL14:
 227:Generated_Source\PSoC5/ADC_SAR_1.c ****     #endif   /* End ADC_SAR_1_IRQ_REMOVE */
 185              		.loc 1 227 0
 186 0076 0122     		movs	r2, #1
 187 0078 054B     		ldr	r3, .L13+12
 188 007a 1A60     		str	r2, [r3]
 230:Generated_Source\PSoC5/ADC_SAR_1.c **** }
 189              		.loc 1 230 0
 190 007c 2046     		mov	r0, r4
 191 007e FFF7FEFF 		bl	CyExitCriticalSection
 192              	.LVL15:
 193 0082 10BD     		pop	{r4, pc}
 194              	.LVL16:
 195              	.L14:
 196              		.align	2
 197              	.L13:
 198 0084 AB430040 		.word	1073759147
 199 0088 06590040 		.word	1073764614
 200 008c 275B0040 		.word	1073765159
 201 0090 80E200E0 		.word	-536812928
 202              		.cfi_endproc
 203              	.LFE2:
 204              		.size	ADC_SAR_1_Enable, .-ADC_SAR_1_Enable
 205              		.section	.text.ADC_SAR_1_Stop,"ax",%progbits
 206              		.align	2
 207              		.global	ADC_SAR_1_Stop
 208              		.thumb
 209              		.thumb_func
 210              		.type	ADC_SAR_1_Stop, %function
 211              	ADC_SAR_1_Stop:
 212              	.LFB3:
 249:Generated_Source\PSoC5/ADC_SAR_1.c ****     uint8 enableInterrupts;
 213              		.loc 1 249 0
 214              		.cfi_startproc
 215              		@ args = 0, pretend = 0, frame = 0
 216              		@ frame_needed = 0, uses_anonymous_args = 0
 217 0000 08B5     		push	{r3, lr}
 218              		.cfi_def_cfa_offset 8
 219              		.cfi_offset 3, -8
 220              		.cfi_offset 14, -4
 251:Generated_Source\PSoC5/ADC_SAR_1.c **** 
 221              		.loc 1 251 0
 222 0002 FFF7FEFF 		bl	CyEnterCriticalSection
 223              	.LVL17:
 254:Generated_Source\PSoC5/ADC_SAR_1.c ****     /* Disable the SAR ADC block in Active Power Mode */
 224              		.loc 1 254 0
ARM GAS  C:\Users\kevan\AppData\Local\Temp\ccXb7CWJ.s 			page 17


 225 0006 0F4A     		ldr	r2, .L17
 226 0008 1378     		ldrb	r3, [r2]	@ zero_extendqisi2
 227 000a 03F0FE03 		and	r3, r3, #254
 228 000e 1370     		strb	r3, [r2]
 256:Generated_Source\PSoC5/ADC_SAR_1.c ****     /* Disable the SAR ADC in Standby Power Mode */
 229              		.loc 1 256 0
 230 0010 A2F5AA52 		sub	r2, r2, #5440
 231 0014 153A     		subs	r2, r2, #21
 232 0016 1378     		ldrb	r3, [r2]	@ zero_extendqisi2
 233 0018 03F0FE03 		and	r3, r3, #254
 234 001c 1370     		strb	r3, [r2]
 258:Generated_Source\PSoC5/ADC_SAR_1.c **** 
 235              		.loc 1 258 0
 236 001e 1032     		adds	r2, r2, #16
 237 0020 1378     		ldrb	r3, [r2]	@ zero_extendqisi2
 238 0022 03F0FE03 		and	r3, r3, #254
 239 0026 1370     		strb	r3, [r2]
 262:Generated_Source\PSoC5/ADC_SAR_1.c ****         ADC_SAR_1_STBY_PWRMGR_CLK_REG &= (uint8)~ADC_SAR_1_STBY_PWR_CLK_EN;
 240              		.loc 1 262 0
 241 0028 1A3A     		subs	r2, r2, #26
 242 002a 1378     		ldrb	r3, [r2]	@ zero_extendqisi2
 243 002c 03F0FD03 		and	r3, r3, #253
 244 0030 1370     		strb	r3, [r2]
 263:Generated_Source\PSoC5/ADC_SAR_1.c ****     #endif /* End ADC_SAR_1_DEFAULT_INTERNAL_CLK */
 245              		.loc 1 263 0
 246 0032 1032     		adds	r2, r2, #16
 247 0034 1378     		ldrb	r3, [r2]	@ zero_extendqisi2
 248 0036 03F0FD03 		and	r3, r3, #253
 249 003a 1370     		strb	r3, [r2]
 266:Generated_Source\PSoC5/ADC_SAR_1.c **** 
 250              		.loc 1 266 0
 251 003c FFF7FEFF 		bl	CyExitCriticalSection
 252              	.LVL18:
 253 0040 08BD     		pop	{r3, pc}
 254              	.L18:
 255 0042 00BF     		.align	2
 256              	.L17:
 257 0044 00590040 		.word	1073764608
 258              		.cfi_endproc
 259              	.LFE3:
 260              		.size	ADC_SAR_1_Stop, .-ADC_SAR_1_Stop
 261              		.section	.text.ADC_SAR_1_SetPower,"ax",%progbits
 262              		.align	2
 263              		.global	ADC_SAR_1_SetPower
 264              		.thumb
 265              		.thumb_func
 266              		.type	ADC_SAR_1_SetPower, %function
 267              	ADC_SAR_1_SetPower:
 268              	.LFB4:
 291:Generated_Source\PSoC5/ADC_SAR_1.c ****     uint8 tmpReg;
 269              		.loc 1 291 0
 270              		.cfi_startproc
 271              		@ args = 0, pretend = 0, frame = 0
 272              		@ frame_needed = 0, uses_anonymous_args = 0
 273              		@ link register save eliminated.
 274              	.LVL19:
 298:Generated_Source\PSoC5/ADC_SAR_1.c ****     tmpReg |= (uint8)(power << ADC_SAR_1_SAR_POWER_SHIFT);
ARM GAS  C:\Users\kevan\AppData\Local\Temp\ccXb7CWJ.s 			page 18


 275              		.loc 1 298 0
 276 0000 044A     		ldr	r2, .L20
 277 0002 1378     		ldrb	r3, [r2]	@ zero_extendqisi2
 278 0004 03F03F03 		and	r3, r3, #63
 279              	.LVL20:
 299:Generated_Source\PSoC5/ADC_SAR_1.c ****     ADC_SAR_1_SAR_CSR0_REG = tmpReg;
 280              		.loc 1 299 0
 281 0008 43EA8010 		orr	r0, r3, r0, lsl #6
 282              	.LVL21:
 283 000c C0B2     		uxtb	r0, r0
 284              	.LVL22:
 300:Generated_Source\PSoC5/ADC_SAR_1.c **** }
 285              		.loc 1 300 0
 286 000e 1070     		strb	r0, [r2]
 287 0010 7047     		bx	lr
 288              	.L21:
 289 0012 00BF     		.align	2
 290              	.L20:
 291 0014 00590040 		.word	1073764608
 292              		.cfi_endproc
 293              	.LFE4:
 294              		.size	ADC_SAR_1_SetPower, .-ADC_SAR_1_SetPower
 295              		.section	.text.ADC_SAR_1_SetResolution,"ax",%progbits
 296              		.align	2
 297              		.global	ADC_SAR_1_SetResolution
 298              		.thumb
 299              		.thumb_func
 300              		.type	ADC_SAR_1_SetResolution, %function
 301              	ADC_SAR_1_SetResolution:
 302              	.LFB5:
 341:Generated_Source\PSoC5/ADC_SAR_1.c ****     uint8 tmpReg;
 303              		.loc 1 341 0
 304              		.cfi_startproc
 305              		@ args = 0, pretend = 0, frame = 0
 306              		@ frame_needed = 0, uses_anonymous_args = 0
 307              	.LVL23:
 308 0000 10B5     		push	{r4, lr}
 309              		.cfi_def_cfa_offset 8
 310              		.cfi_offset 4, -8
 311              		.cfi_offset 14, -4
 312 0002 0446     		mov	r4, r0
 345:Generated_Source\PSoC5/ADC_SAR_1.c ****     {
 313              		.loc 1 345 0
 314 0004 0A28     		cmp	r0, #10
 315 0006 0DD0     		beq	.L27
 316 0008 0C28     		cmp	r0, #12
 317 000a 02D0     		beq	.L25
 318 000c 0828     		cmp	r0, #8
 319 000e 04D1     		bne	.L28
 320 0010 01E0     		b	.L26
 321              	.L25:
 348:Generated_Source\PSoC5/ADC_SAR_1.c ****             break;
 322              		.loc 1 348 0
 323 0012 C422     		movs	r2, #196
 324 0014 07E0     		b	.L24
 325              	.L26:
 326              	.LVL24:
ARM GAS  C:\Users\kevan\AppData\Local\Temp\ccXb7CWJ.s 			page 19


 354:Generated_Source\PSoC5/ADC_SAR_1.c ****             break;
 327              		.loc 1 354 0
 328 0016 4422     		movs	r2, #68
 355:Generated_Source\PSoC5/ADC_SAR_1.c ****         default:
 329              		.loc 1 355 0
 330 0018 05E0     		b	.L24
 331              	.LVL25:
 332              	.L28:
 359:Generated_Source\PSoC5/ADC_SAR_1.c ****             break;
 333              		.loc 1 359 0
 334 001a 0020     		movs	r0, #0
 335              	.LVL26:
 336 001c FFF7FEFF 		bl	CyHalt
 337              	.LVL27:
 357:Generated_Source\PSoC5/ADC_SAR_1.c ****             /* Halt CPU in debug mode if resolution is out of valid range */
 338              		.loc 1 357 0
 339 0020 C422     		movs	r2, #196
 340 0022 00E0     		b	.L24
 341              	.LVL28:
 342              	.L27:
 351:Generated_Source\PSoC5/ADC_SAR_1.c ****             break;
 343              		.loc 1 351 0
 344 0024 8422     		movs	r2, #132
 345              	.LVL29:
 346              	.L24:
 362:Generated_Source\PSoC5/ADC_SAR_1.c **** 
 347              		.loc 1 362 0
 348 0026 034B     		ldr	r3, .L30
 349 0028 1A70     		strb	r2, [r3]
 365:Generated_Source\PSoC5/ADC_SAR_1.c **** }
 350              		.loc 1 365 0
 351 002a 2046     		mov	r0, r4
 352 002c FFF7FEFF 		bl	ADC_SAR_1_CalcGain
 353              	.LVL30:
 354 0030 10BD     		pop	{r4, pc}
 355              	.L31:
 356 0032 00BF     		.align	2
 357              	.L30:
 358 0034 02590040 		.word	1073764610
 359              		.cfi_endproc
 360              	.LFE5:
 361              		.size	ADC_SAR_1_SetResolution, .-ADC_SAR_1_SetResolution
 362              		.section	.text.ADC_SAR_1_Init,"ax",%progbits
 363              		.align	2
 364              		.global	ADC_SAR_1_Init
 365              		.thumb
 366              		.thumb_func
 367              		.type	ADC_SAR_1_Init, %function
 368              	ADC_SAR_1_Init:
 369              	.LFB1:
 107:Generated_Source\PSoC5/ADC_SAR_1.c **** 
 370              		.loc 1 107 0
 371              		.cfi_startproc
 372              		@ args = 0, pretend = 0, frame = 0
 373              		@ frame_needed = 0, uses_anonymous_args = 0
 374 0000 08B5     		push	{r3, lr}
 375              		.cfi_def_cfa_offset 8
ARM GAS  C:\Users\kevan\AppData\Local\Temp\ccXb7CWJ.s 			page 20


 376              		.cfi_offset 3, -8
 377              		.cfi_offset 14, -4
 111:Generated_Source\PSoC5/ADC_SAR_1.c ****     #endif /* End ADC_SAR_1_DEFAULT_INTERNAL_CLK */
 378              		.loc 1 111 0
 379 0002 1020     		movs	r0, #16
 380 0004 FFF7FEFF 		bl	ADC_SAR_1_theACLK_SetModeRegister
 381              	.LVL31:
 116:Generated_Source\PSoC5/ADC_SAR_1.c ****         (void)CyIntSetVector(ADC_SAR_1_INTC_NUMBER, &ADC_SAR_1_ISR);
 382              		.loc 1 116 0
 383 0008 0721     		movs	r1, #7
 384 000a 0020     		movs	r0, #0
 385 000c FFF7FEFF 		bl	CyIntSetPriority
 386              	.LVL32:
 117:Generated_Source\PSoC5/ADC_SAR_1.c ****     #endif   /* End ADC_SAR_1_IRQ_REMOVE */
 387              		.loc 1 117 0
 388 0010 0749     		ldr	r1, .L34
 389 0012 0020     		movs	r0, #0
 390 0014 FFF7FEFF 		bl	CyIntSetVector
 391              	.LVL33:
 121:Generated_Source\PSoC5/ADC_SAR_1.c **** 
 392              		.loc 1 121 0
 393 0018 064A     		ldr	r2, .L34+4
 394 001a 1378     		ldrb	r3, [r2]	@ zero_extendqisi2
 395 001c 43F00603 		orr	r3, r3, #6
 396 0020 1370     		strb	r3, [r2]
 124:Generated_Source\PSoC5/ADC_SAR_1.c ****     ADC_SAR_1_offset = 0;
 397              		.loc 1 124 0
 398 0022 0C20     		movs	r0, #12
 399 0024 FFF7FEFF 		bl	ADC_SAR_1_SetResolution
 400              	.LVL34:
 125:Generated_Source\PSoC5/ADC_SAR_1.c **** }
 401              		.loc 1 125 0
 402 0028 0022     		movs	r2, #0
 403 002a 034B     		ldr	r3, .L34+8
 404 002c 1A80     		strh	r2, [r3]	@ movhi
 405 002e 08BD     		pop	{r3, pc}
 406              	.L35:
 407              		.align	2
 408              	.L34:
 409 0030 00000000 		.word	ADC_SAR_1_ISR
 410 0034 01590040 		.word	1073764609
 411 0038 00000000 		.word	ADC_SAR_1_offset
 412              		.cfi_endproc
 413              	.LFE1:
 414              		.size	ADC_SAR_1_Init, .-ADC_SAR_1_Init
 415              		.section	.text.ADC_SAR_1_Start,"ax",%progbits
 416              		.align	2
 417              		.global	ADC_SAR_1_Start
 418              		.thumb
 419              		.thumb_func
 420              		.type	ADC_SAR_1_Start, %function
 421              	ADC_SAR_1_Start:
 422              	.LFB0:
  75:Generated_Source\PSoC5/ADC_SAR_1.c **** 
 423              		.loc 1 75 0
 424              		.cfi_startproc
 425              		@ args = 0, pretend = 0, frame = 0
ARM GAS  C:\Users\kevan\AppData\Local\Temp\ccXb7CWJ.s 			page 21


 426              		@ frame_needed = 0, uses_anonymous_args = 0
 427 0000 08B5     		push	{r3, lr}
 428              		.cfi_def_cfa_offset 8
 429              		.cfi_offset 3, -8
 430              		.cfi_offset 14, -4
  78:Generated_Source\PSoC5/ADC_SAR_1.c ****     {
 431              		.loc 1 78 0
 432 0002 054B     		ldr	r3, .L39
 433 0004 1B78     		ldrb	r3, [r3]	@ zero_extendqisi2
 434 0006 23B9     		cbnz	r3, .L37
  80:Generated_Source\PSoC5/ADC_SAR_1.c ****         ADC_SAR_1_initVar = 1u;
 435              		.loc 1 80 0
 436 0008 FFF7FEFF 		bl	ADC_SAR_1_Init
 437              	.LVL35:
  81:Generated_Source\PSoC5/ADC_SAR_1.c ****     }
 438              		.loc 1 81 0
 439 000c 0122     		movs	r2, #1
 440 000e 024B     		ldr	r3, .L39
 441 0010 1A70     		strb	r2, [r3]
 442              	.L37:
  83:Generated_Source\PSoC5/ADC_SAR_1.c **** }
 443              		.loc 1 83 0
 444 0012 FFF7FEFF 		bl	ADC_SAR_1_Enable
 445              	.LVL36:
 446 0016 08BD     		pop	{r3, pc}
 447              	.L40:
 448              		.align	2
 449              	.L39:
 450 0018 00000000 		.word	.LANCHOR0
 451              		.cfi_endproc
 452              	.LFE0:
 453              		.size	ADC_SAR_1_Start, .-ADC_SAR_1_Start
 454              		.section	.text.ADC_SAR_1_StartConvert,"ax",%progbits
 455              		.align	2
 456              		.global	ADC_SAR_1_StartConvert
 457              		.thumb
 458              		.thumb_func
 459              		.type	ADC_SAR_1_StartConvert, %function
 460              	ADC_SAR_1_StartConvert:
 461              	.LFB6:
 402:Generated_Source\PSoC5/ADC_SAR_1.c ****         #if(ADC_SAR_1_DEFAULT_CONV_MODE != ADC_SAR_1__FREE_RUNNING)  /* If software triggered mode 
 462              		.loc 1 402 0
 463              		.cfi_startproc
 464              		@ args = 0, pretend = 0, frame = 0
 465              		@ frame_needed = 0, uses_anonymous_args = 0
 466              		@ link register save eliminated.
 404:Generated_Source\PSoC5/ADC_SAR_1.c ****         #endif /* End ADC_SAR_1_DEFAULT_CONV_MODE */
 467              		.loc 1 404 0
 468 0000 044B     		ldr	r3, .L42
 469 0002 1A78     		ldrb	r2, [r3]	@ zero_extendqisi2
 470 0004 02F0FB02 		and	r2, r2, #251
 471 0008 1A70     		strb	r2, [r3]
 408:Generated_Source\PSoC5/ADC_SAR_1.c ****     }
 472              		.loc 1 408 0
 473 000a 1A78     		ldrb	r2, [r3]	@ zero_extendqisi2
 474 000c 42F00102 		orr	r2, r2, #1
 475 0010 1A70     		strb	r2, [r3]
ARM GAS  C:\Users\kevan\AppData\Local\Temp\ccXb7CWJ.s 			page 22


 476 0012 7047     		bx	lr
 477              	.L43:
 478              		.align	2
 479              	.L42:
 480 0014 00590040 		.word	1073764608
 481              		.cfi_endproc
 482              	.LFE6:
 483              		.size	ADC_SAR_1_StartConvert, .-ADC_SAR_1_StartConvert
 484              		.section	.text.ADC_SAR_1_StopConvert,"ax",%progbits
 485              		.align	2
 486              		.global	ADC_SAR_1_StopConvert
 487              		.thumb
 488              		.thumb_func
 489              		.type	ADC_SAR_1_StopConvert, %function
 490              	ADC_SAR_1_StopConvert:
 491              	.LFB7:
 436:Generated_Source\PSoC5/ADC_SAR_1.c ****         /* Stop all conversions */
 492              		.loc 1 436 0
 493              		.cfi_startproc
 494              		@ args = 0, pretend = 0, frame = 0
 495              		@ frame_needed = 0, uses_anonymous_args = 0
 496              		@ link register save eliminated.
 438:Generated_Source\PSoC5/ADC_SAR_1.c **** 
 497              		.loc 1 438 0
 498 0000 044B     		ldr	r3, .L45
 499 0002 1A78     		ldrb	r2, [r3]	@ zero_extendqisi2
 500 0004 02F0FE02 		and	r2, r2, #254
 501 0008 1A70     		strb	r2, [r3]
 442:Generated_Source\PSoC5/ADC_SAR_1.c ****         #endif /* End ADC_SAR_1_DEFAULT_CONV_MODE */
 502              		.loc 1 442 0
 503 000a 1A78     		ldrb	r2, [r3]	@ zero_extendqisi2
 504 000c 42F00402 		orr	r2, r2, #4
 505 0010 1A70     		strb	r2, [r3]
 506 0012 7047     		bx	lr
 507              	.L46:
 508              		.align	2
 509              	.L45:
 510 0014 00590040 		.word	1073764608
 511              		.cfi_endproc
 512              	.LFE7:
 513              		.size	ADC_SAR_1_StopConvert, .-ADC_SAR_1_StopConvert
 514              		.section	.text.ADC_SAR_1_IsEndConversion,"ax",%progbits
 515              		.align	2
 516              		.global	ADC_SAR_1_IsEndConversion
 517              		.thumb
 518              		.thumb_func
 519              		.type	ADC_SAR_1_IsEndConversion, %function
 520              	ADC_SAR_1_IsEndConversion:
 521              	.LFB8:
 476:Generated_Source\PSoC5/ADC_SAR_1.c ****     uint8 status;
 522              		.loc 1 476 0
 523              		.cfi_startproc
 524              		@ args = 0, pretend = 0, frame = 0
 525              		@ frame_needed = 0, uses_anonymous_args = 0
 526              	.LVL37:
 527 0000 10B5     		push	{r4, lr}
 528              		.cfi_def_cfa_offset 8
ARM GAS  C:\Users\kevan\AppData\Local\Temp\ccXb7CWJ.s 			page 23


 529              		.cfi_offset 4, -8
 530              		.cfi_offset 14, -4
 531              	.L49:
 481:Generated_Source\PSoC5/ADC_SAR_1.c ****     } while ((status != ADC_SAR_1_SAR_EOF_1) && (retMode == ADC_SAR_1_WAIT_FOR_RESULT));
 532              		.loc 1 481 0 discriminator 2
 533 0002 074B     		ldr	r3, .L52
 534 0004 1B78     		ldrb	r3, [r3]	@ zero_extendqisi2
 535              	.LVL38:
 482:Generated_Source\PSoC5/ADC_SAR_1.c ****     /* If convertion complete, wait until EOF bit released */
 536              		.loc 1 482 0 discriminator 2
 537 0006 13F00104 		ands	r4, r3, #1
 538 000a 01D1     		bne	.L48
 482:Generated_Source\PSoC5/ADC_SAR_1.c ****     /* If convertion complete, wait until EOF bit released */
 539              		.loc 1 482 0 is_stmt 0 discriminator 1
 540 000c 0028     		cmp	r0, #0
 541 000e F8D0     		beq	.L49
 542              	.L48:
 484:Generated_Source\PSoC5/ADC_SAR_1.c ****     {
 543              		.loc 1 484 0 is_stmt 1
 544 0010 24B1     		cbz	r4, .L50
 487:Generated_Source\PSoC5/ADC_SAR_1.c ****         /* Do the unconditional read operation of the CSR1 register to make sure the EOC bit has be
 545              		.loc 1 487 0
 546 0012 0120     		movs	r0, #1
 547              	.LVL39:
 548 0014 FFF7FEFF 		bl	CyDelayUs
 549              	.LVL40:
 489:Generated_Source\PSoC5/ADC_SAR_1.c ****     }
 550              		.loc 1 489 0
 551 0018 014B     		ldr	r3, .L52
 552 001a 1B78     		ldrb	r3, [r3]	@ zero_extendqisi2
 553              	.L50:
 493:Generated_Source\PSoC5/ADC_SAR_1.c **** 
 554              		.loc 1 493 0
 555 001c 2046     		mov	r0, r4
 556 001e 10BD     		pop	{r4, pc}
 557              	.L53:
 558              		.align	2
 559              	.L52:
 560 0020 01590040 		.word	1073764609
 561              		.cfi_endproc
 562              	.LFE8:
 563              		.size	ADC_SAR_1_IsEndConversion, .-ADC_SAR_1_IsEndConversion
 564              		.section	.text.ADC_SAR_1_GetResult8,"ax",%progbits
 565              		.align	2
 566              		.global	ADC_SAR_1_GetResult8
 567              		.thumb
 568              		.thumb_func
 569              		.type	ADC_SAR_1_GetResult8, %function
 570              	ADC_SAR_1_GetResult8:
 571              	.LFB9:
 521:Generated_Source\PSoC5/ADC_SAR_1.c ****     return( (int8)ADC_SAR_1_SAR_WRK0_REG - (int8)ADC_SAR_1_shift);
 572              		.loc 1 521 0
 573              		.cfi_startproc
 574              		@ args = 0, pretend = 0, frame = 0
 575              		@ frame_needed = 0, uses_anonymous_args = 0
 576              		@ link register save eliminated.
 522:Generated_Source\PSoC5/ADC_SAR_1.c **** }
ARM GAS  C:\Users\kevan\AppData\Local\Temp\ccXb7CWJ.s 			page 24


 577              		.loc 1 522 0
 578 0000 034B     		ldr	r3, .L55
 579 0002 1B78     		ldrb	r3, [r3]	@ zero_extendqisi2
 580 0004 034A     		ldr	r2, .L55+4
 581 0006 1088     		ldrh	r0, [r2]
 582 0008 00B2     		sxth	r0, r0
 583 000a 181A     		subs	r0, r3, r0
 523:Generated_Source\PSoC5/ADC_SAR_1.c **** 
 584              		.loc 1 523 0
 585 000c 40B2     		sxtb	r0, r0
 586 000e 7047     		bx	lr
 587              	.L56:
 588              		.align	2
 589              	.L55:
 590 0010 A05B0040 		.word	1073765280
 591 0014 00000000 		.word	ADC_SAR_1_shift
 592              		.cfi_endproc
 593              	.LFE9:
 594              		.size	ADC_SAR_1_GetResult8, .-ADC_SAR_1_GetResult8
 595              		.section	.text.ADC_SAR_1_GetResult16,"ax",%progbits
 596              		.align	2
 597              		.global	ADC_SAR_1_GetResult16
 598              		.thumb
 599              		.thumb_func
 600              		.type	ADC_SAR_1_GetResult16, %function
 601              	ADC_SAR_1_GetResult16:
 602              	.LFB10:
 551:Generated_Source\PSoC5/ADC_SAR_1.c ****     uint16 res;
 603              		.loc 1 551 0
 604              		.cfi_startproc
 605              		@ args = 0, pretend = 0, frame = 0
 606              		@ frame_needed = 0, uses_anonymous_args = 0
 607              		@ link register save eliminated.
 554:Generated_Source\PSoC5/ADC_SAR_1.c **** 
 608              		.loc 1 554 0
 609 0000 034B     		ldr	r3, .L58
 610 0002 1888     		ldrh	r0, [r3]
 611 0004 80B2     		uxth	r0, r0
 612              	.LVL41:
 556:Generated_Source\PSoC5/ADC_SAR_1.c **** }
 613              		.loc 1 556 0
 614 0006 034B     		ldr	r3, .L58+4
 615 0008 1B88     		ldrh	r3, [r3]
 616 000a C01A     		subs	r0, r0, r3
 617              	.LVL42:
 557:Generated_Source\PSoC5/ADC_SAR_1.c **** 
 618              		.loc 1 557 0
 619 000c 00B2     		sxth	r0, r0
 620 000e 7047     		bx	lr
 621              	.L59:
 622              		.align	2
 623              	.L58:
 624 0010 A05B0040 		.word	1073765280
 625 0014 00000000 		.word	ADC_SAR_1_shift
 626              		.cfi_endproc
 627              	.LFE10:
 628              		.size	ADC_SAR_1_GetResult16, .-ADC_SAR_1_GetResult16
ARM GAS  C:\Users\kevan\AppData\Local\Temp\ccXb7CWJ.s 			page 25


 629              		.section	.text.ADC_SAR_1_SetOffset,"ax",%progbits
 630              		.align	2
 631              		.global	ADC_SAR_1_SetOffset
 632              		.thumb
 633              		.thumb_func
 634              		.type	ADC_SAR_1_SetOffset, %function
 635              	ADC_SAR_1_SetOffset:
 636              	.LFB11:
 586:Generated_Source\PSoC5/ADC_SAR_1.c ****     ADC_SAR_1_offset = offset;
 637              		.loc 1 586 0
 638              		.cfi_startproc
 639              		@ args = 0, pretend = 0, frame = 0
 640              		@ frame_needed = 0, uses_anonymous_args = 0
 641              		@ link register save eliminated.
 642              	.LVL43:
 587:Generated_Source\PSoC5/ADC_SAR_1.c **** }
 643              		.loc 1 587 0
 644 0000 014B     		ldr	r3, .L61
 645 0002 1880     		strh	r0, [r3]	@ movhi
 646 0004 7047     		bx	lr
 647              	.L62:
 648 0006 00BF     		.align	2
 649              	.L61:
 650 0008 00000000 		.word	ADC_SAR_1_offset
 651              		.cfi_endproc
 652              	.LFE11:
 653              		.size	ADC_SAR_1_SetOffset, .-ADC_SAR_1_SetOffset
 654              		.section	.text.ADC_SAR_1_SetGain,"ax",%progbits
 655              		.align	2
 656              		.global	ADC_SAR_1_SetGain
 657              		.thumb
 658              		.thumb_func
 659              		.type	ADC_SAR_1_SetGain, %function
 660              	ADC_SAR_1_SetGain:
 661              	.LFB13:
 665:Generated_Source\PSoC5/ADC_SAR_1.c ****     #else
 666:Generated_Source\PSoC5/ADC_SAR_1.c ****         ADC_SAR_1_shift = diff_zero;
 667:Generated_Source\PSoC5/ADC_SAR_1.c ****     #endif /* End ADC_SAR_1_DEFAULT_RANGE */
 668:Generated_Source\PSoC5/ADC_SAR_1.c **** }
 669:Generated_Source\PSoC5/ADC_SAR_1.c **** 
 670:Generated_Source\PSoC5/ADC_SAR_1.c **** 
 671:Generated_Source\PSoC5/ADC_SAR_1.c **** /*******************************************************************************
 672:Generated_Source\PSoC5/ADC_SAR_1.c **** * Function Name: ADC_SAR_1_SetGain
 673:Generated_Source\PSoC5/ADC_SAR_1.c **** ********************************************************************************
 674:Generated_Source\PSoC5/ADC_SAR_1.c **** *
 675:Generated_Source\PSoC5/ADC_SAR_1.c **** * Summary:
 676:Generated_Source\PSoC5/ADC_SAR_1.c **** *  Sets the ADC gain in counts per volt for the voltage conversion functions
 677:Generated_Source\PSoC5/ADC_SAR_1.c **** *  that follow. This value is set by default by the reference and input range
 678:Generated_Source\PSoC5/ADC_SAR_1.c **** *  settings. It should only be used to further calibrate the ADC with a known
 679:Generated_Source\PSoC5/ADC_SAR_1.c **** *  input or if the ADC is using an external reference.
 680:Generated_Source\PSoC5/ADC_SAR_1.c **** *
 681:Generated_Source\PSoC5/ADC_SAR_1.c **** * Parameters:
 682:Generated_Source\PSoC5/ADC_SAR_1.c **** *  int16 adcGain counts per volt
 683:Generated_Source\PSoC5/ADC_SAR_1.c **** *
 684:Generated_Source\PSoC5/ADC_SAR_1.c **** * Return:
 685:Generated_Source\PSoC5/ADC_SAR_1.c **** *  None.
 686:Generated_Source\PSoC5/ADC_SAR_1.c **** *
ARM GAS  C:\Users\kevan\AppData\Local\Temp\ccXb7CWJ.s 			page 26


 687:Generated_Source\PSoC5/ADC_SAR_1.c **** * Global Variables:
 688:Generated_Source\PSoC5/ADC_SAR_1.c **** *  ADC_SAR_1_countsPer10Volt variable modified. This variable is used
 689:Generated_Source\PSoC5/ADC_SAR_1.c **** *  for gain calibration purpose.
 690:Generated_Source\PSoC5/ADC_SAR_1.c **** *
 691:Generated_Source\PSoC5/ADC_SAR_1.c **** *******************************************************************************/
 692:Generated_Source\PSoC5/ADC_SAR_1.c **** void ADC_SAR_1_SetGain(int16 adcGain)
 693:Generated_Source\PSoC5/ADC_SAR_1.c **** {
 662              		.loc 1 693 0
 663              		.cfi_startproc
 664              		@ args = 0, pretend = 0, frame = 0
 665              		@ frame_needed = 0, uses_anonymous_args = 0
 666              		@ link register save eliminated.
 667              	.LVL44:
 694:Generated_Source\PSoC5/ADC_SAR_1.c ****     ADC_SAR_1_countsPer10Volt = (int32)adcGain * 10;
 668              		.loc 1 694 0
 669 0000 00EB8000 		add	r0, r0, r0, lsl #2
 670              	.LVL45:
 671 0004 4300     		lsls	r3, r0, #1
 672 0006 014A     		ldr	r2, .L64
 673 0008 1360     		str	r3, [r2]
 674 000a 7047     		bx	lr
 675              	.L65:
 676              		.align	2
 677              	.L64:
 678 000c 00000000 		.word	ADC_SAR_1_countsPer10Volt
 679              		.cfi_endproc
 680              	.LFE13:
 681              		.size	ADC_SAR_1_SetGain, .-ADC_SAR_1_SetGain
 682              		.section	.text.ADC_SAR_1_SetScaledGain,"ax",%progbits
 683              		.align	2
 684              		.global	ADC_SAR_1_SetScaledGain
 685              		.thumb
 686              		.thumb_func
 687              		.type	ADC_SAR_1_SetScaledGain, %function
 688              	ADC_SAR_1_SetScaledGain:
 689              	.LFB14:
 695:Generated_Source\PSoC5/ADC_SAR_1.c **** }
 696:Generated_Source\PSoC5/ADC_SAR_1.c **** 
 697:Generated_Source\PSoC5/ADC_SAR_1.c **** 
 698:Generated_Source\PSoC5/ADC_SAR_1.c **** /*******************************************************************************
 699:Generated_Source\PSoC5/ADC_SAR_1.c **** * Function Name: ADC_SAR_1_SetScaledGain
 700:Generated_Source\PSoC5/ADC_SAR_1.c **** ********************************************************************************
 701:Generated_Source\PSoC5/ADC_SAR_1.c **** *
 702:Generated_Source\PSoC5/ADC_SAR_1.c **** * Summary:
 703:Generated_Source\PSoC5/ADC_SAR_1.c **** *  Sets the ADC gain in counts per 10 volt for the voltage conversion functions
 704:Generated_Source\PSoC5/ADC_SAR_1.c **** *  that follow. This value is set by default by the reference and input range
 705:Generated_Source\PSoC5/ADC_SAR_1.c **** *  settings. It should only be used to further calibrate the ADC with a known
 706:Generated_Source\PSoC5/ADC_SAR_1.c **** *  input or if the ADC is using an external reference.
 707:Generated_Source\PSoC5/ADC_SAR_1.c **** *
 708:Generated_Source\PSoC5/ADC_SAR_1.c **** * Parameters:
 709:Generated_Source\PSoC5/ADC_SAR_1.c **** *  int32 adcGain  counts per 10 volt
 710:Generated_Source\PSoC5/ADC_SAR_1.c **** *
 711:Generated_Source\PSoC5/ADC_SAR_1.c **** * Return:
 712:Generated_Source\PSoC5/ADC_SAR_1.c **** *  None.
 713:Generated_Source\PSoC5/ADC_SAR_1.c **** *
 714:Generated_Source\PSoC5/ADC_SAR_1.c **** * Global Variables:
 715:Generated_Source\PSoC5/ADC_SAR_1.c **** *  ADC_SAR_1_countsPer10Volt variable modified. This variable is used
ARM GAS  C:\Users\kevan\AppData\Local\Temp\ccXb7CWJ.s 			page 27


 716:Generated_Source\PSoC5/ADC_SAR_1.c **** *  for gain calibration purpose.
 717:Generated_Source\PSoC5/ADC_SAR_1.c **** *
 718:Generated_Source\PSoC5/ADC_SAR_1.c **** *******************************************************************************/
 719:Generated_Source\PSoC5/ADC_SAR_1.c **** void ADC_SAR_1_SetScaledGain(int32 adcGain)
 720:Generated_Source\PSoC5/ADC_SAR_1.c **** {
 690              		.loc 1 720 0
 691              		.cfi_startproc
 692              		@ args = 0, pretend = 0, frame = 0
 693              		@ frame_needed = 0, uses_anonymous_args = 0
 694              		@ link register save eliminated.
 695              	.LVL46:
 721:Generated_Source\PSoC5/ADC_SAR_1.c ****     ADC_SAR_1_countsPer10Volt = adcGain;
 696              		.loc 1 721 0
 697 0000 014B     		ldr	r3, .L67
 698 0002 1860     		str	r0, [r3]
 699 0004 7047     		bx	lr
 700              	.L68:
 701 0006 00BF     		.align	2
 702              	.L67:
 703 0008 00000000 		.word	ADC_SAR_1_countsPer10Volt
 704              		.cfi_endproc
 705              	.LFE14:
 706              		.size	ADC_SAR_1_SetScaledGain, .-ADC_SAR_1_SetScaledGain
 707              		.section	.text.ADC_SAR_1_CountsTo_mVolts,"ax",%progbits
 708              		.align	2
 709              		.global	ADC_SAR_1_CountsTo_mVolts
 710              		.thumb
 711              		.thumb_func
 712              		.type	ADC_SAR_1_CountsTo_mVolts, %function
 713              	ADC_SAR_1_CountsTo_mVolts:
 714              	.LFB15:
 722:Generated_Source\PSoC5/ADC_SAR_1.c **** }
 723:Generated_Source\PSoC5/ADC_SAR_1.c **** 
 724:Generated_Source\PSoC5/ADC_SAR_1.c **** 
 725:Generated_Source\PSoC5/ADC_SAR_1.c **** /*******************************************************************************
 726:Generated_Source\PSoC5/ADC_SAR_1.c **** * Function Name: ADC_SAR_1_CountsTo_mVolts
 727:Generated_Source\PSoC5/ADC_SAR_1.c **** ********************************************************************************
 728:Generated_Source\PSoC5/ADC_SAR_1.c **** *
 729:Generated_Source\PSoC5/ADC_SAR_1.c **** * Summary:
 730:Generated_Source\PSoC5/ADC_SAR_1.c **** *  Converts the ADC output to millivolts as a 16-bit integer.
 731:Generated_Source\PSoC5/ADC_SAR_1.c **** *
 732:Generated_Source\PSoC5/ADC_SAR_1.c **** * Parameters:
 733:Generated_Source\PSoC5/ADC_SAR_1.c **** *  int16 adcCounts:  Result from the ADC conversion
 734:Generated_Source\PSoC5/ADC_SAR_1.c **** *
 735:Generated_Source\PSoC5/ADC_SAR_1.c **** * Return:
 736:Generated_Source\PSoC5/ADC_SAR_1.c **** *  int16 Result in mVolts
 737:Generated_Source\PSoC5/ADC_SAR_1.c **** *
 738:Generated_Source\PSoC5/ADC_SAR_1.c **** * Global Variables:
 739:Generated_Source\PSoC5/ADC_SAR_1.c **** *  ADC_SAR_1_offset variable used.
 740:Generated_Source\PSoC5/ADC_SAR_1.c **** *  ADC_SAR_1_countsPer10Volt variable used.
 741:Generated_Source\PSoC5/ADC_SAR_1.c **** *
 742:Generated_Source\PSoC5/ADC_SAR_1.c **** *******************************************************************************/
 743:Generated_Source\PSoC5/ADC_SAR_1.c **** int16 ADC_SAR_1_CountsTo_mVolts(int16 adcCounts)
 744:Generated_Source\PSoC5/ADC_SAR_1.c **** {
 715              		.loc 1 744 0
 716              		.cfi_startproc
 717              		@ args = 0, pretend = 0, frame = 0
ARM GAS  C:\Users\kevan\AppData\Local\Temp\ccXb7CWJ.s 			page 28


 718              		@ frame_needed = 0, uses_anonymous_args = 0
 719              		@ link register save eliminated.
 720              	.LVL47:
 721 0000 10B4     		push	{r4}
 722              		.cfi_def_cfa_offset 4
 723              		.cfi_offset 4, -4
 745:Generated_Source\PSoC5/ADC_SAR_1.c ****     int16 mVolts;
 746:Generated_Source\PSoC5/ADC_SAR_1.c ****     int32 countsPer10Volt;
 747:Generated_Source\PSoC5/ADC_SAR_1.c **** 
 748:Generated_Source\PSoC5/ADC_SAR_1.c ****     if(ADC_SAR_1_countsPerVolt != 0)
 724              		.loc 1 748 0
 725 0002 124B     		ldr	r3, .L75
 726 0004 1B88     		ldrh	r3, [r3]
 727 0006 1BB2     		sxth	r3, r3
 728 0008 33B1     		cbz	r3, .L70
 749:Generated_Source\PSoC5/ADC_SAR_1.c ****     {   /* Support obsolete method */
 750:Generated_Source\PSoC5/ADC_SAR_1.c ****         countsPer10Volt = (int32)ADC_SAR_1_countsPerVolt * 10;
 729              		.loc 1 750 0
 730 000a 104B     		ldr	r3, .L75
 731 000c 1B88     		ldrh	r3, [r3]
 732 000e 1BB2     		sxth	r3, r3
 733 0010 03EB8303 		add	r3, r3, r3, lsl #2
 734 0014 5C00     		lsls	r4, r3, #1
 735              	.LVL48:
 736 0016 01E0     		b	.L71
 737              	.LVL49:
 738              	.L70:
 751:Generated_Source\PSoC5/ADC_SAR_1.c ****     }
 752:Generated_Source\PSoC5/ADC_SAR_1.c ****     else
 753:Generated_Source\PSoC5/ADC_SAR_1.c ****     {
 754:Generated_Source\PSoC5/ADC_SAR_1.c ****         countsPer10Volt = ADC_SAR_1_countsPer10Volt;
 739              		.loc 1 754 0
 740 0018 0D4B     		ldr	r3, .L75+4
 741 001a 1C68     		ldr	r4, [r3]
 742              	.LVL50:
 743              	.L71:
 755:Generated_Source\PSoC5/ADC_SAR_1.c ****     }
 756:Generated_Source\PSoC5/ADC_SAR_1.c **** 
 757:Generated_Source\PSoC5/ADC_SAR_1.c ****     /* Subtract ADC offset */
 758:Generated_Source\PSoC5/ADC_SAR_1.c ****     adcCounts -= ADC_SAR_1_offset;
 744              		.loc 1 758 0
 745 001c 0D4B     		ldr	r3, .L75+8
 746 001e 1988     		ldrh	r1, [r3]
 747 0020 411A     		subs	r1, r0, r1
 748 0022 09B2     		sxth	r1, r1
 749              	.LVL51:
 759:Generated_Source\PSoC5/ADC_SAR_1.c ****     /* Convert to millivolts with rounding */
 760:Generated_Source\PSoC5/ADC_SAR_1.c ****     mVolts = (int16)( (( (int32)adcCounts * ADC_SAR_1_10MV_COUNTS ) + ( (adcCounts > 0) ?
 750              		.loc 1 760 0
 751 0024 42F21073 		movw	r3, #10000
 752 0028 03FB01F2 		mul	r2, r3, r1
 761:Generated_Source\PSoC5/ADC_SAR_1.c ****                        (countsPer10Volt / 2) : (-(countsPer10Volt / 2)) )) / countsPer10Volt);
 753              		.loc 1 761 0
 754 002c 0029     		cmp	r1, #0
 755 002e 03DD     		ble	.L72
 756              		.loc 1 761 0 is_stmt 0 discriminator 1
 757 0030 04EBD470 		add	r0, r4, r4, lsr #31
ARM GAS  C:\Users\kevan\AppData\Local\Temp\ccXb7CWJ.s 			page 29


 758 0034 4010     		asrs	r0, r0, #1
 759 0036 03E0     		b	.L73
 760              	.L72:
 761              		.loc 1 761 0 discriminator 2
 762 0038 04EBD470 		add	r0, r4, r4, lsr #31
 763 003c 4010     		asrs	r0, r0, #1
 764 003e 4042     		negs	r0, r0
 765              	.L73:
 760:Generated_Source\PSoC5/ADC_SAR_1.c ****                        (countsPer10Volt / 2) : (-(countsPer10Volt / 2)) )) / countsPer10Volt);
 766              		.loc 1 760 0 is_stmt 1
 767 0040 8318     		adds	r3, r0, r2
 768              		.loc 1 761 0
 769 0042 93FBF4F0 		sdiv	r0, r3, r4
 770              	.LVL52:
 762:Generated_Source\PSoC5/ADC_SAR_1.c **** 
 763:Generated_Source\PSoC5/ADC_SAR_1.c ****     return( mVolts );
 764:Generated_Source\PSoC5/ADC_SAR_1.c **** }
 771              		.loc 1 764 0
 772 0046 00B2     		sxth	r0, r0
 773 0048 10BC     		pop	{r4}
 774              		.cfi_restore 4
 775              		.cfi_def_cfa_offset 0
 776              	.LVL53:
 777 004a 7047     		bx	lr
 778              	.L76:
 779              		.align	2
 780              	.L75:
 781 004c 00000000 		.word	ADC_SAR_1_countsPerVolt
 782 0050 00000000 		.word	ADC_SAR_1_countsPer10Volt
 783 0054 00000000 		.word	ADC_SAR_1_offset
 784              		.cfi_endproc
 785              	.LFE15:
 786              		.size	ADC_SAR_1_CountsTo_mVolts, .-ADC_SAR_1_CountsTo_mVolts
 787              		.global	__aeabi_ldivmod
 788              		.section	.text.ADC_SAR_1_CountsTo_uVolts,"ax",%progbits
 789              		.align	2
 790              		.global	ADC_SAR_1_CountsTo_uVolts
 791              		.thumb
 792              		.thumb_func
 793              		.type	ADC_SAR_1_CountsTo_uVolts, %function
 794              	ADC_SAR_1_CountsTo_uVolts:
 795              	.LFB16:
 765:Generated_Source\PSoC5/ADC_SAR_1.c **** 
 766:Generated_Source\PSoC5/ADC_SAR_1.c **** 
 767:Generated_Source\PSoC5/ADC_SAR_1.c **** /*******************************************************************************
 768:Generated_Source\PSoC5/ADC_SAR_1.c **** * Function Name: ADC_SAR_1_CountsTo_uVolts
 769:Generated_Source\PSoC5/ADC_SAR_1.c **** ********************************************************************************
 770:Generated_Source\PSoC5/ADC_SAR_1.c **** *
 771:Generated_Source\PSoC5/ADC_SAR_1.c **** * Summary:
 772:Generated_Source\PSoC5/ADC_SAR_1.c **** *  Converts the ADC output to microvolts as a 32-bit integer.
 773:Generated_Source\PSoC5/ADC_SAR_1.c **** *
 774:Generated_Source\PSoC5/ADC_SAR_1.c **** * Parameters:
 775:Generated_Source\PSoC5/ADC_SAR_1.c **** *  int16 adcCounts: Result from the ADC conversion
 776:Generated_Source\PSoC5/ADC_SAR_1.c **** *
 777:Generated_Source\PSoC5/ADC_SAR_1.c **** * Return:
 778:Generated_Source\PSoC5/ADC_SAR_1.c **** *  int32 Result in micro Volts
 779:Generated_Source\PSoC5/ADC_SAR_1.c **** *
ARM GAS  C:\Users\kevan\AppData\Local\Temp\ccXb7CWJ.s 			page 30


 780:Generated_Source\PSoC5/ADC_SAR_1.c **** * Global Variables:
 781:Generated_Source\PSoC5/ADC_SAR_1.c **** *  ADC_SAR_1_offset variable used.
 782:Generated_Source\PSoC5/ADC_SAR_1.c **** *  ADC_SAR_1_countsPer10Volt used to convert ADC counts to uVolts.
 783:Generated_Source\PSoC5/ADC_SAR_1.c **** *
 784:Generated_Source\PSoC5/ADC_SAR_1.c **** *******************************************************************************/
 785:Generated_Source\PSoC5/ADC_SAR_1.c **** int32 ADC_SAR_1_CountsTo_uVolts(int16 adcCounts)
 786:Generated_Source\PSoC5/ADC_SAR_1.c **** {
 796              		.loc 1 786 0
 797              		.cfi_startproc
 798              		@ args = 0, pretend = 0, frame = 0
 799              		@ frame_needed = 0, uses_anonymous_args = 0
 800              	.LVL54:
 801 0000 38B5     		push	{r3, r4, r5, lr}
 802              		.cfi_def_cfa_offset 16
 803              		.cfi_offset 3, -16
 804              		.cfi_offset 4, -12
 805              		.cfi_offset 5, -8
 806              		.cfi_offset 14, -4
 787:Generated_Source\PSoC5/ADC_SAR_1.c **** 
 788:Generated_Source\PSoC5/ADC_SAR_1.c ****     int64 uVolts;
 789:Generated_Source\PSoC5/ADC_SAR_1.c ****     int32 countsPer10Volt;
 790:Generated_Source\PSoC5/ADC_SAR_1.c **** 
 791:Generated_Source\PSoC5/ADC_SAR_1.c ****     if(ADC_SAR_1_countsPerVolt != 0)
 807              		.loc 1 791 0
 808 0002 0D4B     		ldr	r3, .L81
 809 0004 1B88     		ldrh	r3, [r3]
 810 0006 1BB2     		sxth	r3, r3
 811 0008 33B1     		cbz	r3, .L78
 792:Generated_Source\PSoC5/ADC_SAR_1.c ****     {   /* Support obsolete method */
 793:Generated_Source\PSoC5/ADC_SAR_1.c ****         countsPer10Volt = (int32)ADC_SAR_1_countsPerVolt * 10;
 812              		.loc 1 793 0
 813 000a 0B4B     		ldr	r3, .L81
 814 000c 1B88     		ldrh	r3, [r3]
 815 000e 1BB2     		sxth	r3, r3
 816 0010 03EB8303 		add	r3, r3, r3, lsl #2
 817 0014 5A00     		lsls	r2, r3, #1
 818              	.LVL55:
 819 0016 01E0     		b	.L79
 820              	.LVL56:
 821              	.L78:
 794:Generated_Source\PSoC5/ADC_SAR_1.c ****     }
 795:Generated_Source\PSoC5/ADC_SAR_1.c ****     else
 796:Generated_Source\PSoC5/ADC_SAR_1.c ****     {
 797:Generated_Source\PSoC5/ADC_SAR_1.c ****         countsPer10Volt = ADC_SAR_1_countsPer10Volt;
 822              		.loc 1 797 0
 823 0018 084B     		ldr	r3, .L81+4
 824 001a 1A68     		ldr	r2, [r3]
 825              	.LVL57:
 826              	.L79:
 798:Generated_Source\PSoC5/ADC_SAR_1.c ****     }
 799:Generated_Source\PSoC5/ADC_SAR_1.c **** 
 800:Generated_Source\PSoC5/ADC_SAR_1.c ****     /* Subtract ADC offset */
 801:Generated_Source\PSoC5/ADC_SAR_1.c ****     adcCounts -= ADC_SAR_1_offset;
 827              		.loc 1 801 0
 828 001c 084B     		ldr	r3, .L81+8
 829 001e 1C88     		ldrh	r4, [r3]
 830 0020 041B     		subs	r4, r0, r4
ARM GAS  C:\Users\kevan\AppData\Local\Temp\ccXb7CWJ.s 			page 31


 831              	.LVL58:
 802:Generated_Source\PSoC5/ADC_SAR_1.c ****     /* To convert adcCounts to microVolts it is required to be multiplied
 803:Generated_Source\PSoC5/ADC_SAR_1.c ****     *  on 10 million and later divide on gain in counts per 10V.
 804:Generated_Source\PSoC5/ADC_SAR_1.c ****     */
 805:Generated_Source\PSoC5/ADC_SAR_1.c ****     uVolts = (( (int64)adcCounts * ADC_SAR_1_10UV_COUNTS ) / countsPer10Volt);
 832              		.loc 1 805 0
 833 0022 24B2     		sxth	r4, r4
 834 0024 E517     		asrs	r5, r4, #31
 835 0026 074B     		ldr	r3, .L81+12
 836 0028 A4FB0301 		umull	r0, r1, r4, r3
 837 002c 03FB0511 		mla	r1, r3, r5, r1
 838 0030 D317     		asrs	r3, r2, #31
 839 0032 FFF7FEFF 		bl	__aeabi_ldivmod
 840              	.LVL59:
 806:Generated_Source\PSoC5/ADC_SAR_1.c **** 
 807:Generated_Source\PSoC5/ADC_SAR_1.c ****     return((int32) uVolts );
 808:Generated_Source\PSoC5/ADC_SAR_1.c **** }
 841              		.loc 1 808 0
 842 0036 38BD     		pop	{r3, r4, r5, pc}
 843              	.LVL60:
 844              	.L82:
 845              		.align	2
 846              	.L81:
 847 0038 00000000 		.word	ADC_SAR_1_countsPerVolt
 848 003c 00000000 		.word	ADC_SAR_1_countsPer10Volt
 849 0040 00000000 		.word	ADC_SAR_1_offset
 850 0044 80969800 		.word	10000000
 851              		.cfi_endproc
 852              	.LFE16:
 853              		.size	ADC_SAR_1_CountsTo_uVolts, .-ADC_SAR_1_CountsTo_uVolts
 854              		.global	__aeabi_i2f
 855              		.global	__aeabi_fmul
 856              		.global	__aeabi_fdiv
 857              		.section	.text.ADC_SAR_1_CountsTo_Volts,"ax",%progbits
 858              		.align	2
 859              		.global	ADC_SAR_1_CountsTo_Volts
 860              		.thumb
 861              		.thumb_func
 862              		.type	ADC_SAR_1_CountsTo_Volts, %function
 863              	ADC_SAR_1_CountsTo_Volts:
 864              	.LFB17:
 809:Generated_Source\PSoC5/ADC_SAR_1.c **** 
 810:Generated_Source\PSoC5/ADC_SAR_1.c **** 
 811:Generated_Source\PSoC5/ADC_SAR_1.c **** /*******************************************************************************
 812:Generated_Source\PSoC5/ADC_SAR_1.c **** * Function Name: ADC_SAR_1_CountsTo_Volts
 813:Generated_Source\PSoC5/ADC_SAR_1.c **** ********************************************************************************
 814:Generated_Source\PSoC5/ADC_SAR_1.c **** *
 815:Generated_Source\PSoC5/ADC_SAR_1.c **** * Summary:
 816:Generated_Source\PSoC5/ADC_SAR_1.c **** *  Converts the ADC output to volts as a floating-point number.
 817:Generated_Source\PSoC5/ADC_SAR_1.c **** *
 818:Generated_Source\PSoC5/ADC_SAR_1.c **** * Parameters:
 819:Generated_Source\PSoC5/ADC_SAR_1.c **** *  int16 adcCounts: Result from the ADC conversion
 820:Generated_Source\PSoC5/ADC_SAR_1.c **** *
 821:Generated_Source\PSoC5/ADC_SAR_1.c **** * Return:
 822:Generated_Source\PSoC5/ADC_SAR_1.c **** *  float Result in Volts
 823:Generated_Source\PSoC5/ADC_SAR_1.c **** *
 824:Generated_Source\PSoC5/ADC_SAR_1.c **** * Global Variables:
ARM GAS  C:\Users\kevan\AppData\Local\Temp\ccXb7CWJ.s 			page 32


 825:Generated_Source\PSoC5/ADC_SAR_1.c **** *  ADC_SAR_1_offset variable used.
 826:Generated_Source\PSoC5/ADC_SAR_1.c **** *  ADC_SAR_1_countsPer10Volt used to convert ADC counts to Volts.
 827:Generated_Source\PSoC5/ADC_SAR_1.c **** *
 828:Generated_Source\PSoC5/ADC_SAR_1.c **** *******************************************************************************/
 829:Generated_Source\PSoC5/ADC_SAR_1.c **** float32 ADC_SAR_1_CountsTo_Volts(int16 adcCounts)
 830:Generated_Source\PSoC5/ADC_SAR_1.c **** {
 865              		.loc 1 830 0
 866              		.cfi_startproc
 867              		@ args = 0, pretend = 0, frame = 0
 868              		@ frame_needed = 0, uses_anonymous_args = 0
 869              	.LVL61:
 870 0000 38B5     		push	{r3, r4, r5, lr}
 871              		.cfi_def_cfa_offset 16
 872              		.cfi_offset 3, -16
 873              		.cfi_offset 4, -12
 874              		.cfi_offset 5, -8
 875              		.cfi_offset 14, -4
 831:Generated_Source\PSoC5/ADC_SAR_1.c ****     float32 volts;
 832:Generated_Source\PSoC5/ADC_SAR_1.c ****     int32 countsPer10Volt;
 833:Generated_Source\PSoC5/ADC_SAR_1.c **** 
 834:Generated_Source\PSoC5/ADC_SAR_1.c ****     if(ADC_SAR_1_countsPerVolt != 0)
 876              		.loc 1 834 0
 877 0002 0F4B     		ldr	r3, .L87
 878 0004 1B88     		ldrh	r3, [r3]
 879 0006 1BB2     		sxth	r3, r3
 880 0008 33B1     		cbz	r3, .L84
 835:Generated_Source\PSoC5/ADC_SAR_1.c ****     {   /* Support obsolete method */
 836:Generated_Source\PSoC5/ADC_SAR_1.c ****         countsPer10Volt = (int32)ADC_SAR_1_countsPerVolt * 10;
 881              		.loc 1 836 0
 882 000a 0D4B     		ldr	r3, .L87
 883 000c 1B88     		ldrh	r3, [r3]
 884 000e 1BB2     		sxth	r3, r3
 885 0010 03EB8303 		add	r3, r3, r3, lsl #2
 886 0014 5C00     		lsls	r4, r3, #1
 887              	.LVL62:
 888 0016 01E0     		b	.L85
 889              	.LVL63:
 890              	.L84:
 837:Generated_Source\PSoC5/ADC_SAR_1.c ****     }
 838:Generated_Source\PSoC5/ADC_SAR_1.c ****     else
 839:Generated_Source\PSoC5/ADC_SAR_1.c ****     {
 840:Generated_Source\PSoC5/ADC_SAR_1.c ****         countsPer10Volt = ADC_SAR_1_countsPer10Volt;
 891              		.loc 1 840 0
 892 0018 0A4B     		ldr	r3, .L87+4
 893 001a 1C68     		ldr	r4, [r3]
 894              	.LVL64:
 895              	.L85:
 841:Generated_Source\PSoC5/ADC_SAR_1.c ****     }
 842:Generated_Source\PSoC5/ADC_SAR_1.c **** 
 843:Generated_Source\PSoC5/ADC_SAR_1.c ****     /* Subtract ADC offset */
 844:Generated_Source\PSoC5/ADC_SAR_1.c ****     adcCounts -= ADC_SAR_1_offset;
 896              		.loc 1 844 0
 897 001c 0A4B     		ldr	r3, .L87+8
 898 001e 1B88     		ldrh	r3, [r3]
 899 0020 C01A     		subs	r0, r0, r3
 900              	.LVL65:
 845:Generated_Source\PSoC5/ADC_SAR_1.c **** 
ARM GAS  C:\Users\kevan\AppData\Local\Temp\ccXb7CWJ.s 			page 33


 846:Generated_Source\PSoC5/ADC_SAR_1.c ****     volts = ((float32)adcCounts * ADC_SAR_1_10V_COUNTS) / (float32)countsPer10Volt;
 901              		.loc 1 846 0
 902 0022 00B2     		sxth	r0, r0
 903 0024 FFF7FEFF 		bl	__aeabi_i2f
 904              	.LVL66:
 905 0028 0849     		ldr	r1, .L87+12
 906 002a FFF7FEFF 		bl	__aeabi_fmul
 907              	.LVL67:
 908 002e 0546     		mov	r5, r0
 909 0030 2046     		mov	r0, r4
 910 0032 FFF7FEFF 		bl	__aeabi_i2f
 911              	.LVL68:
 912 0036 0146     		mov	r1, r0
 913 0038 2846     		mov	r0, r5
 914 003a FFF7FEFF 		bl	__aeabi_fdiv
 915              	.LVL69:
 847:Generated_Source\PSoC5/ADC_SAR_1.c **** 
 848:Generated_Source\PSoC5/ADC_SAR_1.c ****     return( volts );
 849:Generated_Source\PSoC5/ADC_SAR_1.c **** }
 916              		.loc 1 849 0
 917 003e 38BD     		pop	{r3, r4, r5, pc}
 918              	.LVL70:
 919              	.L88:
 920              		.align	2
 921              	.L87:
 922 0040 00000000 		.word	ADC_SAR_1_countsPerVolt
 923 0044 00000000 		.word	ADC_SAR_1_countsPer10Volt
 924 0048 00000000 		.word	ADC_SAR_1_offset
 925 004c 00002041 		.word	1092616192
 926              		.cfi_endproc
 927              	.LFE17:
 928              		.size	ADC_SAR_1_CountsTo_Volts, .-ADC_SAR_1_CountsTo_Volts
 929              		.comm	ADC_SAR_1_shift,2,2
 930              		.comm	ADC_SAR_1_countsPer10Volt,4,4
 931              		.comm	ADC_SAR_1_countsPerVolt,2,2
 932              		.comm	ADC_SAR_1_offset,2,2
 933              		.global	ADC_SAR_1_initVar
 934              		.bss
 935              		.set	.LANCHOR0,. + 0
 936              		.type	ADC_SAR_1_initVar, %object
 937              		.size	ADC_SAR_1_initVar, 1
 938              	ADC_SAR_1_initVar:
 939 0000 00       		.space	1
 940              		.text
 941              	.Letext0:
 942              		.file 2 "Generated_Source\\PSoC5\\cytypes.h"
 943              		.file 3 "Generated_Source\\PSoC5\\CyLib.h"
 944              		.file 4 "Generated_Source\\PSoC5\\ADC_SAR_1_theACLK.h"