ARM GAS  C:\Users\Andrew\AppData\Local\Temp\cci1lPdA.s 			page 1


   1              		.syntax unified
   2              		.cpu cortex-m3
   3              		.fpu softvfp
   4              		.eabi_attribute 20, 1
   5              		.eabi_attribute 21, 1
   6              		.eabi_attribute 23, 3
   7              		.eabi_attribute 24, 1
   8              		.eabi_attribute 25, 1
   9              		.eabi_attribute 26, 1
  10              		.eabi_attribute 30, 6
  11              		.eabi_attribute 34, 1
  12              		.eabi_attribute 18, 4
  13              		.thumb
  14              		.syntax unified
  15              		.file	"AMux_0.c"
  16              		.text
  17              	.Ltext0:
  18              		.cfi_sections	.debug_frame
  19              		.data
  20              		.type	AMux_0_lastChannel, %object
  21              		.size	AMux_0_lastChannel, 1
  22              	AMux_0_lastChannel:
  23 0000 FF       		.byte	-1
  24              		.section	.text.AMux_0_Start,"ax",%progbits
  25              		.align	2
  26              		.global	AMux_0_Start
  27              		.thumb
  28              		.thumb_func
  29              		.type	AMux_0_Start, %function
  30              	AMux_0_Start:
  31              	.LFB0:
  32              		.file 1 "Generated_Source\\PSoC5\\AMux_0.c"
   1:Generated_Source\PSoC5/AMux_0.c **** /*******************************************************************************
   2:Generated_Source\PSoC5/AMux_0.c **** * File Name: AMux_0.c
   3:Generated_Source\PSoC5/AMux_0.c **** * Version 1.80
   4:Generated_Source\PSoC5/AMux_0.c **** *
   5:Generated_Source\PSoC5/AMux_0.c **** *  Description:
   6:Generated_Source\PSoC5/AMux_0.c **** *    This file contains all functions required for the analog multiplexer
   7:Generated_Source\PSoC5/AMux_0.c **** *    AMux User Module.
   8:Generated_Source\PSoC5/AMux_0.c **** *
   9:Generated_Source\PSoC5/AMux_0.c **** *   Note:
  10:Generated_Source\PSoC5/AMux_0.c **** *
  11:Generated_Source\PSoC5/AMux_0.c **** *******************************************************************************
  12:Generated_Source\PSoC5/AMux_0.c **** * Copyright 2008-2010, Cypress Semiconductor Corporation.  All rights reserved.
  13:Generated_Source\PSoC5/AMux_0.c **** * You may use this file only in accordance with the license, terms, conditions, 
  14:Generated_Source\PSoC5/AMux_0.c **** * disclaimers, and limitations in the end user license agreement accompanying 
  15:Generated_Source\PSoC5/AMux_0.c **** * the software package with which this file was provided.
  16:Generated_Source\PSoC5/AMux_0.c **** ********************************************************************************/
  17:Generated_Source\PSoC5/AMux_0.c **** 
  18:Generated_Source\PSoC5/AMux_0.c **** #include "AMux_0.h"
  19:Generated_Source\PSoC5/AMux_0.c **** 
  20:Generated_Source\PSoC5/AMux_0.c **** static uint8 AMux_0_lastChannel = AMux_0_NULL_CHANNEL;
  21:Generated_Source\PSoC5/AMux_0.c **** 
  22:Generated_Source\PSoC5/AMux_0.c **** 
  23:Generated_Source\PSoC5/AMux_0.c **** /*******************************************************************************
  24:Generated_Source\PSoC5/AMux_0.c **** * Function Name: AMux_0_Start
  25:Generated_Source\PSoC5/AMux_0.c **** ********************************************************************************
ARM GAS  C:\Users\Andrew\AppData\Local\Temp\cci1lPdA.s 			page 2


  26:Generated_Source\PSoC5/AMux_0.c **** * Summary:
  27:Generated_Source\PSoC5/AMux_0.c **** *  Disconnect all channels.
  28:Generated_Source\PSoC5/AMux_0.c **** *
  29:Generated_Source\PSoC5/AMux_0.c **** * Parameters:
  30:Generated_Source\PSoC5/AMux_0.c **** *  void
  31:Generated_Source\PSoC5/AMux_0.c **** *
  32:Generated_Source\PSoC5/AMux_0.c **** * Return:
  33:Generated_Source\PSoC5/AMux_0.c **** *  void
  34:Generated_Source\PSoC5/AMux_0.c **** *
  35:Generated_Source\PSoC5/AMux_0.c **** *******************************************************************************/
  36:Generated_Source\PSoC5/AMux_0.c **** void AMux_0_Start(void) 
  37:Generated_Source\PSoC5/AMux_0.c **** {
  33              		.loc 1 37 0
  34              		.cfi_startproc
  35              		@ args = 0, pretend = 0, frame = 8
  36              		@ frame_needed = 1, uses_anonymous_args = 0
  37 0000 80B5     		push	{r7, lr}
  38              		.cfi_def_cfa_offset 8
  39              		.cfi_offset 7, -8
  40              		.cfi_offset 14, -4
  41 0002 82B0     		sub	sp, sp, #8
  42              		.cfi_def_cfa_offset 16
  43 0004 00AF     		add	r7, sp, #0
  44              		.cfi_def_cfa_register 7
  38:Generated_Source\PSoC5/AMux_0.c ****     uint8 chan;
  39:Generated_Source\PSoC5/AMux_0.c **** 
  40:Generated_Source\PSoC5/AMux_0.c ****     for(chan = 0u; chan < AMux_0_CHANNELS ; chan++)
  45              		.loc 1 40 0
  46 0006 0023     		movs	r3, #0
  47 0008 FB71     		strb	r3, [r7, #7]
  48 000a 06E0     		b	.L2
  49              	.L3:
  41:Generated_Source\PSoC5/AMux_0.c ****     {
  42:Generated_Source\PSoC5/AMux_0.c **** #if (AMux_0_MUXTYPE == AMux_0_MUX_SINGLE)
  43:Generated_Source\PSoC5/AMux_0.c ****         AMux_0_Unset(chan);
  50              		.loc 1 43 0 discriminator 3
  51 000c FB79     		ldrb	r3, [r7, #7]	@ zero_extendqisi2
  52 000e 1846     		mov	r0, r3
  53 0010 FFF7FEFF 		bl	AMux_0_Unset
  40:Generated_Source\PSoC5/AMux_0.c ****     {
  54              		.loc 1 40 0 discriminator 3
  55 0014 FB79     		ldrb	r3, [r7, #7]	@ zero_extendqisi2
  56 0016 0133     		adds	r3, r3, #1
  57 0018 FB71     		strb	r3, [r7, #7]
  58              	.L2:
  40:Generated_Source\PSoC5/AMux_0.c ****     {
  59              		.loc 1 40 0 is_stmt 0 discriminator 1
  60 001a FB79     		ldrb	r3, [r7, #7]	@ zero_extendqisi2
  61 001c 032B     		cmp	r3, #3
  62 001e F5D9     		bls	.L3
  44:Generated_Source\PSoC5/AMux_0.c **** #else
  45:Generated_Source\PSoC5/AMux_0.c ****         AMux_0_CYAMUXSIDE_A_Unset(chan);
  46:Generated_Source\PSoC5/AMux_0.c ****         AMux_0_CYAMUXSIDE_B_Unset(chan);
  47:Generated_Source\PSoC5/AMux_0.c **** #endif
  48:Generated_Source\PSoC5/AMux_0.c ****     }
  49:Generated_Source\PSoC5/AMux_0.c **** 
  50:Generated_Source\PSoC5/AMux_0.c ****     AMux_0_lastChannel = AMux_0_NULL_CHANNEL;
ARM GAS  C:\Users\Andrew\AppData\Local\Temp\cci1lPdA.s 			page 3


  63              		.loc 1 50 0 is_stmt 1
  64 0020 034B     		ldr	r3, .L4
  65 0022 FF22     		movs	r2, #255
  66 0024 1A70     		strb	r2, [r3]
  51:Generated_Source\PSoC5/AMux_0.c **** }
  67              		.loc 1 51 0
  68 0026 00BF     		nop
  69 0028 0837     		adds	r7, r7, #8
  70              		.cfi_def_cfa_offset 8
  71 002a BD46     		mov	sp, r7
  72              		.cfi_def_cfa_register 13
  73              		@ sp needed
  74 002c 80BD     		pop	{r7, pc}
  75              	.L5:
  76 002e 00BF     		.align	2
  77              	.L4:
  78 0030 00000000 		.word	AMux_0_lastChannel
  79              		.cfi_endproc
  80              	.LFE0:
  81              		.size	AMux_0_Start, .-AMux_0_Start
  82              		.section	.text.AMux_0_FastSelect,"ax",%progbits
  83              		.align	2
  84              		.global	AMux_0_FastSelect
  85              		.thumb
  86              		.thumb_func
  87              		.type	AMux_0_FastSelect, %function
  88              	AMux_0_FastSelect:
  89              	.LFB1:
  52:Generated_Source\PSoC5/AMux_0.c **** 
  53:Generated_Source\PSoC5/AMux_0.c **** 
  54:Generated_Source\PSoC5/AMux_0.c **** #if (!AMux_0_ATMOSTONE)
  55:Generated_Source\PSoC5/AMux_0.c **** /*******************************************************************************
  56:Generated_Source\PSoC5/AMux_0.c **** * Function Name: AMux_0_Select
  57:Generated_Source\PSoC5/AMux_0.c **** ********************************************************************************
  58:Generated_Source\PSoC5/AMux_0.c **** * Summary:
  59:Generated_Source\PSoC5/AMux_0.c **** *  This functions first disconnects all channels then connects the given
  60:Generated_Source\PSoC5/AMux_0.c **** *  channel.
  61:Generated_Source\PSoC5/AMux_0.c **** *
  62:Generated_Source\PSoC5/AMux_0.c **** * Parameters:
  63:Generated_Source\PSoC5/AMux_0.c **** *  channel:  The channel to connect to the common terminal.
  64:Generated_Source\PSoC5/AMux_0.c **** *
  65:Generated_Source\PSoC5/AMux_0.c **** * Return:
  66:Generated_Source\PSoC5/AMux_0.c **** *  void
  67:Generated_Source\PSoC5/AMux_0.c **** *
  68:Generated_Source\PSoC5/AMux_0.c **** *******************************************************************************/
  69:Generated_Source\PSoC5/AMux_0.c **** void AMux_0_Select(uint8 channel) 
  70:Generated_Source\PSoC5/AMux_0.c **** {
  71:Generated_Source\PSoC5/AMux_0.c ****     AMux_0_DisconnectAll();        /* Disconnect all previous connections */
  72:Generated_Source\PSoC5/AMux_0.c ****     AMux_0_Connect(channel);       /* Make the given selection */
  73:Generated_Source\PSoC5/AMux_0.c ****     AMux_0_lastChannel = channel;  /* Update last channel */
  74:Generated_Source\PSoC5/AMux_0.c **** }
  75:Generated_Source\PSoC5/AMux_0.c **** #endif
  76:Generated_Source\PSoC5/AMux_0.c **** 
  77:Generated_Source\PSoC5/AMux_0.c **** 
  78:Generated_Source\PSoC5/AMux_0.c **** /*******************************************************************************
  79:Generated_Source\PSoC5/AMux_0.c **** * Function Name: AMux_0_FastSelect
  80:Generated_Source\PSoC5/AMux_0.c **** ********************************************************************************
ARM GAS  C:\Users\Andrew\AppData\Local\Temp\cci1lPdA.s 			page 4


  81:Generated_Source\PSoC5/AMux_0.c **** * Summary:
  82:Generated_Source\PSoC5/AMux_0.c **** *  This function first disconnects the last connection made with FastSelect or
  83:Generated_Source\PSoC5/AMux_0.c **** *  Select, then connects the given channel. The FastSelect function is similar
  84:Generated_Source\PSoC5/AMux_0.c **** *  to the Select function, except it is faster since it only disconnects the
  85:Generated_Source\PSoC5/AMux_0.c **** *  last channel selected rather than all channels.
  86:Generated_Source\PSoC5/AMux_0.c **** *
  87:Generated_Source\PSoC5/AMux_0.c **** * Parameters:
  88:Generated_Source\PSoC5/AMux_0.c **** *  channel:  The channel to connect to the common terminal.
  89:Generated_Source\PSoC5/AMux_0.c **** *
  90:Generated_Source\PSoC5/AMux_0.c **** * Return:
  91:Generated_Source\PSoC5/AMux_0.c **** *  void
  92:Generated_Source\PSoC5/AMux_0.c **** *
  93:Generated_Source\PSoC5/AMux_0.c **** *******************************************************************************/
  94:Generated_Source\PSoC5/AMux_0.c **** void AMux_0_FastSelect(uint8 channel) 
  95:Generated_Source\PSoC5/AMux_0.c **** {
  90              		.loc 1 95 0
  91              		.cfi_startproc
  92              		@ args = 0, pretend = 0, frame = 8
  93              		@ frame_needed = 1, uses_anonymous_args = 0
  94 0000 80B5     		push	{r7, lr}
  95              		.cfi_def_cfa_offset 8
  96              		.cfi_offset 7, -8
  97              		.cfi_offset 14, -4
  98 0002 82B0     		sub	sp, sp, #8
  99              		.cfi_def_cfa_offset 16
 100 0004 00AF     		add	r7, sp, #0
 101              		.cfi_def_cfa_register 7
 102 0006 0346     		mov	r3, r0
 103 0008 FB71     		strb	r3, [r7, #7]
  96:Generated_Source\PSoC5/AMux_0.c ****     /* Disconnect the last valid channel */
  97:Generated_Source\PSoC5/AMux_0.c ****     if( AMux_0_lastChannel != AMux_0_NULL_CHANNEL)
 104              		.loc 1 97 0
 105 000a 0A4B     		ldr	r3, .L8
 106 000c 1B78     		ldrb	r3, [r3]	@ zero_extendqisi2
 107 000e FF2B     		cmp	r3, #255
 108 0010 04D0     		beq	.L7
  98:Generated_Source\PSoC5/AMux_0.c ****     {
  99:Generated_Source\PSoC5/AMux_0.c ****         AMux_0_Disconnect(AMux_0_lastChannel);
 109              		.loc 1 99 0
 110 0012 084B     		ldr	r3, .L8
 111 0014 1B78     		ldrb	r3, [r3]	@ zero_extendqisi2
 112 0016 1846     		mov	r0, r3
 113 0018 FFF7FEFF 		bl	AMux_0_Unset
 114              	.L7:
 100:Generated_Source\PSoC5/AMux_0.c ****     }
 101:Generated_Source\PSoC5/AMux_0.c **** 
 102:Generated_Source\PSoC5/AMux_0.c ****     /* Make the new channel connection */
 103:Generated_Source\PSoC5/AMux_0.c **** #if (AMux_0_MUXTYPE == AMux_0_MUX_SINGLE)
 104:Generated_Source\PSoC5/AMux_0.c ****     AMux_0_Set(channel);
 115              		.loc 1 104 0
 116 001c FB79     		ldrb	r3, [r7, #7]	@ zero_extendqisi2
 117 001e 1846     		mov	r0, r3
 118 0020 FFF7FEFF 		bl	AMux_0_Set
 105:Generated_Source\PSoC5/AMux_0.c **** #else
 106:Generated_Source\PSoC5/AMux_0.c ****     AMux_0_CYAMUXSIDE_A_Set(channel);
 107:Generated_Source\PSoC5/AMux_0.c ****     AMux_0_CYAMUXSIDE_B_Set(channel);
 108:Generated_Source\PSoC5/AMux_0.c **** #endif
ARM GAS  C:\Users\Andrew\AppData\Local\Temp\cci1lPdA.s 			page 5


 109:Generated_Source\PSoC5/AMux_0.c **** 
 110:Generated_Source\PSoC5/AMux_0.c **** 
 111:Generated_Source\PSoC5/AMux_0.c ****     AMux_0_lastChannel = channel;   /* Update last channel */
 119              		.loc 1 111 0
 120 0024 034A     		ldr	r2, .L8
 121 0026 FB79     		ldrb	r3, [r7, #7]
 122 0028 1370     		strb	r3, [r2]
 112:Generated_Source\PSoC5/AMux_0.c **** }
 123              		.loc 1 112 0
 124 002a 00BF     		nop
 125 002c 0837     		adds	r7, r7, #8
 126              		.cfi_def_cfa_offset 8
 127 002e BD46     		mov	sp, r7
 128              		.cfi_def_cfa_register 13
 129              		@ sp needed
 130 0030 80BD     		pop	{r7, pc}
 131              	.L9:
 132 0032 00BF     		.align	2
 133              	.L8:
 134 0034 00000000 		.word	AMux_0_lastChannel
 135              		.cfi_endproc
 136              	.LFE1:
 137              		.size	AMux_0_FastSelect, .-AMux_0_FastSelect
 138              		.section	.text.AMux_0_DisconnectAll,"ax",%progbits
 139              		.align	2
 140              		.global	AMux_0_DisconnectAll
 141              		.thumb
 142              		.thumb_func
 143              		.type	AMux_0_DisconnectAll, %function
 144              	AMux_0_DisconnectAll:
 145              	.LFB2:
 113:Generated_Source\PSoC5/AMux_0.c **** 
 114:Generated_Source\PSoC5/AMux_0.c **** 
 115:Generated_Source\PSoC5/AMux_0.c **** #if (AMux_0_MUXTYPE == AMux_0_MUX_DIFF)
 116:Generated_Source\PSoC5/AMux_0.c **** #if (!AMux_0_ATMOSTONE)
 117:Generated_Source\PSoC5/AMux_0.c **** /*******************************************************************************
 118:Generated_Source\PSoC5/AMux_0.c **** * Function Name: AMux_0_Connect
 119:Generated_Source\PSoC5/AMux_0.c **** ********************************************************************************
 120:Generated_Source\PSoC5/AMux_0.c **** * Summary:
 121:Generated_Source\PSoC5/AMux_0.c **** *  This function connects the given channel without affecting other connections.
 122:Generated_Source\PSoC5/AMux_0.c **** *
 123:Generated_Source\PSoC5/AMux_0.c **** * Parameters:
 124:Generated_Source\PSoC5/AMux_0.c **** *  channel:  The channel to connect to the common terminal.
 125:Generated_Source\PSoC5/AMux_0.c **** *
 126:Generated_Source\PSoC5/AMux_0.c **** * Return:
 127:Generated_Source\PSoC5/AMux_0.c **** *  void
 128:Generated_Source\PSoC5/AMux_0.c **** *
 129:Generated_Source\PSoC5/AMux_0.c **** *******************************************************************************/
 130:Generated_Source\PSoC5/AMux_0.c **** void AMux_0_Connect(uint8 channel) 
 131:Generated_Source\PSoC5/AMux_0.c **** {
 132:Generated_Source\PSoC5/AMux_0.c ****     AMux_0_CYAMUXSIDE_A_Set(channel);
 133:Generated_Source\PSoC5/AMux_0.c ****     AMux_0_CYAMUXSIDE_B_Set(channel);
 134:Generated_Source\PSoC5/AMux_0.c **** }
 135:Generated_Source\PSoC5/AMux_0.c **** #endif
 136:Generated_Source\PSoC5/AMux_0.c **** 
 137:Generated_Source\PSoC5/AMux_0.c **** /*******************************************************************************
 138:Generated_Source\PSoC5/AMux_0.c **** * Function Name: AMux_0_Disconnect
ARM GAS  C:\Users\Andrew\AppData\Local\Temp\cci1lPdA.s 			page 6


 139:Generated_Source\PSoC5/AMux_0.c **** ********************************************************************************
 140:Generated_Source\PSoC5/AMux_0.c **** * Summary:
 141:Generated_Source\PSoC5/AMux_0.c **** *  This function disconnects the given channel from the common or output
 142:Generated_Source\PSoC5/AMux_0.c **** *  terminal without affecting other connections.
 143:Generated_Source\PSoC5/AMux_0.c **** *
 144:Generated_Source\PSoC5/AMux_0.c **** * Parameters:
 145:Generated_Source\PSoC5/AMux_0.c **** *  channel:  The channel to disconnect from the common terminal.
 146:Generated_Source\PSoC5/AMux_0.c **** *
 147:Generated_Source\PSoC5/AMux_0.c **** * Return:
 148:Generated_Source\PSoC5/AMux_0.c **** *  void
 149:Generated_Source\PSoC5/AMux_0.c **** *
 150:Generated_Source\PSoC5/AMux_0.c **** *******************************************************************************/
 151:Generated_Source\PSoC5/AMux_0.c **** void AMux_0_Disconnect(uint8 channel) 
 152:Generated_Source\PSoC5/AMux_0.c **** {
 153:Generated_Source\PSoC5/AMux_0.c ****     AMux_0_CYAMUXSIDE_A_Unset(channel);
 154:Generated_Source\PSoC5/AMux_0.c ****     AMux_0_CYAMUXSIDE_B_Unset(channel);
 155:Generated_Source\PSoC5/AMux_0.c **** }
 156:Generated_Source\PSoC5/AMux_0.c **** #endif
 157:Generated_Source\PSoC5/AMux_0.c **** 
 158:Generated_Source\PSoC5/AMux_0.c **** #if (AMux_0_ATMOSTONE)
 159:Generated_Source\PSoC5/AMux_0.c **** /*******************************************************************************
 160:Generated_Source\PSoC5/AMux_0.c **** * Function Name: AMux_0_DisconnectAll
 161:Generated_Source\PSoC5/AMux_0.c **** ********************************************************************************
 162:Generated_Source\PSoC5/AMux_0.c **** * Summary:
 163:Generated_Source\PSoC5/AMux_0.c **** *  This function disconnects all channels.
 164:Generated_Source\PSoC5/AMux_0.c **** *
 165:Generated_Source\PSoC5/AMux_0.c **** * Parameters:
 166:Generated_Source\PSoC5/AMux_0.c **** *  void
 167:Generated_Source\PSoC5/AMux_0.c **** *
 168:Generated_Source\PSoC5/AMux_0.c **** * Return:
 169:Generated_Source\PSoC5/AMux_0.c **** *  void
 170:Generated_Source\PSoC5/AMux_0.c **** *
 171:Generated_Source\PSoC5/AMux_0.c **** *******************************************************************************/
 172:Generated_Source\PSoC5/AMux_0.c **** void AMux_0_DisconnectAll(void) 
 173:Generated_Source\PSoC5/AMux_0.c **** {
 146              		.loc 1 173 0
 147              		.cfi_startproc
 148              		@ args = 0, pretend = 0, frame = 0
 149              		@ frame_needed = 1, uses_anonymous_args = 0
 150 0000 80B5     		push	{r7, lr}
 151              		.cfi_def_cfa_offset 8
 152              		.cfi_offset 7, -8
 153              		.cfi_offset 14, -4
 154 0002 00AF     		add	r7, sp, #0
 155              		.cfi_def_cfa_register 7
 174:Generated_Source\PSoC5/AMux_0.c ****     if(AMux_0_lastChannel != AMux_0_NULL_CHANNEL) 
 156              		.loc 1 174 0
 157 0004 064B     		ldr	r3, .L13
 158 0006 1B78     		ldrb	r3, [r3]	@ zero_extendqisi2
 159 0008 FF2B     		cmp	r3, #255
 160 000a 07D0     		beq	.L12
 175:Generated_Source\PSoC5/AMux_0.c ****     {
 176:Generated_Source\PSoC5/AMux_0.c ****         AMux_0_Disconnect(AMux_0_lastChannel);
 161              		.loc 1 176 0
 162 000c 044B     		ldr	r3, .L13
 163 000e 1B78     		ldrb	r3, [r3]	@ zero_extendqisi2
 164 0010 1846     		mov	r0, r3
ARM GAS  C:\Users\Andrew\AppData\Local\Temp\cci1lPdA.s 			page 7


 165 0012 FFF7FEFF 		bl	AMux_0_Unset
 177:Generated_Source\PSoC5/AMux_0.c ****         AMux_0_lastChannel = AMux_0_NULL_CHANNEL;
 166              		.loc 1 177 0
 167 0016 024B     		ldr	r3, .L13
 168 0018 FF22     		movs	r2, #255
 169 001a 1A70     		strb	r2, [r3]
 170              	.L12:
 178:Generated_Source\PSoC5/AMux_0.c ****     }
 179:Generated_Source\PSoC5/AMux_0.c **** }
 171              		.loc 1 179 0
 172 001c 00BF     		nop
 173 001e 80BD     		pop	{r7, pc}
 174              	.L14:
 175              		.align	2
 176              	.L13:
 177 0020 00000000 		.word	AMux_0_lastChannel
 178              		.cfi_endproc
 179              	.LFE2:
 180              		.size	AMux_0_DisconnectAll, .-AMux_0_DisconnectAll
 181              		.text
 182              	.Letext0:
 183              		.file 2 "Generated_Source\\PSoC5\\cytypes.h"