ARM GAS  C:\Users\Andrew\AppData\Local\Temp\cciI3n3d.s 			page 1


   1              		.syntax unified
   2              		.cpu cortex-m3
   3              		.fpu softvfp
   4              		.eabi_attribute 20, 1
   5              		.eabi_attribute 21, 1
   6              		.eabi_attribute 23, 3
   7              		.eabi_attribute 24, 1
   8              		.eabi_attribute 25, 1
   9              		.eabi_attribute 26, 1
  10              		.eabi_attribute 30, 6
  11              		.eabi_attribute 34, 1
  12              		.eabi_attribute 18, 4
  13              		.thumb
  14              		.syntax unified
  15              		.file	"debug.c"
  16              		.text
  17              	.Ltext0:
  18              		.cfi_sections	.debug_frame
  19              		.section	.text._write,"ax",%progbits
  20              		.align	2
  21              		.global	_write
  22              		.thumb
  23              		.thumb_func
  24              		.type	_write, %function
  25              	_write:
  26              	.LFB64:
  27              		.file 1 "debug.c"
   1:debug.c       **** /*******************************************************************************
   2:debug.c       **** * File Name: debug.c
   3:debug.c       **** *
   4:debug.c       **** * Version: 1.10
   5:debug.c       **** *
   6:debug.c       **** * Description:
   7:debug.c       **** *  This file contains functions for printf functionality.
   8:debug.c       **** *
   9:debug.c       **** *******************************************************************************
  10:debug.c       **** * Copyright (2017), Cypress Semiconductor Corporation. All rights reserved.
  11:debug.c       **** *******************************************************************************
  12:debug.c       **** * This software, including source code, documentation and related materials
  13:debug.c       **** * (“Software”), is owned by Cypress Semiconductor Corporation or one of its
  14:debug.c       **** * subsidiaries (“Cypress”) and is protected by and subject to worldwide patent
  15:debug.c       **** * protection (United States and foreign), United States copyright laws and
  16:debug.c       **** * international treaty provisions. Therefore, you may use this Software only
  17:debug.c       **** * as provided in the license agreement accompanying the software package from
  18:debug.c       **** * which you obtained this Software (“EULA”).
  19:debug.c       **** *
  20:debug.c       **** * If no EULA applies, Cypress hereby grants you a personal, non-exclusive,
  21:debug.c       **** * non-transferable license to copy, modify, and compile the Software source
  22:debug.c       **** * code solely for use in connection with Cypress’s integrated circuit products.
  23:debug.c       **** * Any reproduction, modification, translation, compilation, or representation
  24:debug.c       **** * of this Software except as specified above is prohibited without the express
  25:debug.c       **** * written permission of Cypress.
  26:debug.c       **** *
  27:debug.c       **** * Disclaimer: THIS SOFTWARE IS PROVIDED AS-IS, WITH NO WARRANTY OF ANY KIND, 
  28:debug.c       **** * EXPRESS OR IMPLIED, INCLUDING, BUT NOT LIMITED TO, NONINFRINGEMENT, IMPLIED 
  29:debug.c       **** * WARRANTIES OF MERCHANTABILITY AND FITNESS FOR A PARTICULAR PURPOSE. Cypress 
  30:debug.c       **** * reserves the right to make changes to the Software without notice. Cypress 
ARM GAS  C:\Users\Andrew\AppData\Local\Temp\cciI3n3d.s 			page 2


  31:debug.c       **** * does not assume any liability arising out of the application or use of the 
  32:debug.c       **** * Software or any product or circuit described in the Software. Cypress does 
  33:debug.c       **** * not authorize its products for use in any products where a malfunction or 
  34:debug.c       **** * failure of the Cypress product may reasonably be expected to result in 
  35:debug.c       **** * significant property damage, injury or death (“High Risk Product”). By 
  36:debug.c       **** * including Cypress’s product in a High Risk Product, the manufacturer of such 
  37:debug.c       **** * system or application assumes all risk of such use and in doing so agrees to 
  38:debug.c       **** * indemnify Cypress against all liability. 
  39:debug.c       **** *******************************************************************************/
  40:debug.c       **** 
  41:debug.c       **** 
  42:debug.c       **** #include <project.h>
  43:debug.c       **** #include <stdio.h>
  44:debug.c       **** #include "common.h"
  45:debug.c       **** 
  46:debug.c       **** #if (UART_PRINTF_ENABLED == ENABLED)
  47:debug.c       **** 
  48:debug.c       **** #if (CY_PSOC3)
  49:debug.c       ****     /* For Keil compiler revise putchar() function with communication
  50:debug.c       ****        component which has to send data */
  51:debug.c       ****     char putchar(char c)
  52:debug.c       ****     {
  53:debug.c       ****         UART_PutChar(c);
  54:debug.c       ****         return (c);
  55:debug.c       ****     }
  56:debug.c       ****     
  57:debug.c       **** #else
  58:debug.c       ****     
  59:debug.c       ****     #if defined(__ARMCC_VERSION)
  60:debug.c       ****         
  61:debug.c       ****     /* For MDK/RVDS compiler revise fputc function for printf functionality */
  62:debug.c       ****     struct __FILE 
  63:debug.c       ****     {
  64:debug.c       ****         int handle;  
  65:debug.c       ****     };
  66:debug.c       **** 
  67:debug.c       ****     enum 
  68:debug.c       ****     {
  69:debug.c       ****         STDIN_HANDLE,
  70:debug.c       ****         STDOUT_HANDLE,
  71:debug.c       ****         STDERR_HANDLE
  72:debug.c       ****     };
  73:debug.c       **** 
  74:debug.c       ****     FILE __stdin = {STDIN_HANDLE};
  75:debug.c       ****     FILE __stdout = {STDOUT_HANDLE};
  76:debug.c       ****     FILE __stderr = {STDERR_HANDLE};
  77:debug.c       **** 
  78:debug.c       ****     int fputc(int ch, FILE *file) 
  79:debug.c       ****     {
  80:debug.c       ****         int ret = EOF;
  81:debug.c       **** 
  82:debug.c       ****         switch( file->handle )
  83:debug.c       ****         {
  84:debug.c       ****             case STDOUT_HANDLE:
  85:debug.c       ****                 UART_PutChar(ch);
  86:debug.c       ****                 ret = ch ;
  87:debug.c       ****                 break ;
ARM GAS  C:\Users\Andrew\AppData\Local\Temp\cciI3n3d.s 			page 3


  88:debug.c       **** 
  89:debug.c       ****             case STDERR_HANDLE:
  90:debug.c       ****                 ret = ch ;
  91:debug.c       ****                 break ;
  92:debug.c       **** 
  93:debug.c       ****             default:
  94:debug.c       ****                 file = file;
  95:debug.c       ****                 break ;
  96:debug.c       ****         }
  97:debug.c       ****         return (ret);
  98:debug.c       ****     }
  99:debug.c       **** 
 100:debug.c       ****     #elif defined (__ICCARM__)      /* IAR */
 101:debug.c       **** 
 102:debug.c       ****     /* For IAR compiler revise __write() function for printf functionality */
 103:debug.c       ****     size_t __write(int handle, const unsigned char * buffer, size_t size)
 104:debug.c       ****     {
 105:debug.c       ****         size_t nChars = 0;
 106:debug.c       **** 
 107:debug.c       ****         if (buffer != NULL)
 108:debug.c       ****         {
 109:debug.c       ****             for (/* Empty */; size != 0; --size)
 110:debug.c       ****             {
 111:debug.c       ****                 UART_PutChar(*buffer++);
 112:debug.c       ****                 ++nChars;
 113:debug.c       ****             }
 114:debug.c       ****         }
 115:debug.c       ****         else
 116:debug.c       ****         {
 117:debug.c       ****             /*
 118:debug.c       ****              * This means that we should flush internal buffers.  Since we
 119:debug.c       ****              * don't we just return.  (Remember, "handle" == -1 means that all
 120:debug.c       ****              * handles should be flushed.)
 121:debug.c       ****              */
 122:debug.c       ****         }
 123:debug.c       **** 
 124:debug.c       ****         return (nChars);
 125:debug.c       ****     }
 126:debug.c       **** 
 127:debug.c       ****     #else  /* (__GNUC__)  GCC */
 128:debug.c       **** 
 129:debug.c       ****     /* For GCC compiler revise _write() function for printf functionality */
 130:debug.c       ****     int _write(int file, char *ptr, int len)
 131:debug.c       ****     {
  28              		.loc 1 131 0
  29              		.cfi_startproc
  30              		@ args = 0, pretend = 0, frame = 24
  31              		@ frame_needed = 1, uses_anonymous_args = 0
  32 0000 80B5     		push	{r7, lr}
  33              		.cfi_def_cfa_offset 8
  34              		.cfi_offset 7, -8
  35              		.cfi_offset 14, -4
  36 0002 86B0     		sub	sp, sp, #24
  37              		.cfi_def_cfa_offset 32
  38 0004 00AF     		add	r7, sp, #0
  39              		.cfi_def_cfa_register 7
  40 0006 F860     		str	r0, [r7, #12]
ARM GAS  C:\Users\Andrew\AppData\Local\Temp\cciI3n3d.s 			page 4


  41 0008 B960     		str	r1, [r7, #8]
  42 000a 7A60     		str	r2, [r7, #4]
 132:debug.c       ****         int i;
 133:debug.c       ****         file = file;
 134:debug.c       ****         for (i = 0; i < len; i++)
  43              		.loc 1 134 0
  44 000c 0023     		movs	r3, #0
  45 000e 7B61     		str	r3, [r7, #20]
  46 0010 09E0     		b	.L2
  47              	.L3:
 135:debug.c       ****         {
 136:debug.c       ****             UART_PutChar(*ptr++);
  48              		.loc 1 136 0 discriminator 3
  49 0012 BB68     		ldr	r3, [r7, #8]
  50 0014 5A1C     		adds	r2, r3, #1
  51 0016 BA60     		str	r2, [r7, #8]
  52 0018 1B78     		ldrb	r3, [r3]	@ zero_extendqisi2
  53 001a 1846     		mov	r0, r3
  54 001c FFF7FEFF 		bl	UART_PutChar
 134:debug.c       ****         {
  55              		.loc 1 134 0 discriminator 3
  56 0020 7B69     		ldr	r3, [r7, #20]
  57 0022 0133     		adds	r3, r3, #1
  58 0024 7B61     		str	r3, [r7, #20]
  59              	.L2:
 134:debug.c       ****         {
  60              		.loc 1 134 0 is_stmt 0 discriminator 1
  61 0026 7A69     		ldr	r2, [r7, #20]
  62 0028 7B68     		ldr	r3, [r7, #4]
  63 002a 9A42     		cmp	r2, r3
  64 002c F1DB     		blt	.L3
 137:debug.c       ****         }
 138:debug.c       ****         return (len);
  65              		.loc 1 138 0 is_stmt 1
  66 002e 7B68     		ldr	r3, [r7, #4]
 139:debug.c       ****     }
  67              		.loc 1 139 0
  68 0030 1846     		mov	r0, r3
  69 0032 1837     		adds	r7, r7, #24
  70              		.cfi_def_cfa_offset 8
  71 0034 BD46     		mov	sp, r7
  72              		.cfi_def_cfa_register 13
  73              		@ sp needed
  74 0036 80BD     		pop	{r7, pc}
  75              		.cfi_endproc
  76              	.LFE64:
  77              		.size	_write, .-_write
  78              		.text
  79              	.Letext0:
  80              		.file 2 "c:\\program files (x86)\\cypress\\psoc creator\\4.2\\psoc creator\\import\\gnu\\arm\\5.4.
  81              		.file 3 "c:\\program files (x86)\\cypress\\psoc creator\\4.2\\psoc creator\\import\\gnu\\arm\\5.4.
  82              		.file 4 "Generated_Source\\PSoC5/core_cm3.h"