ARM GAS  C:\Users\Andrew\AppData\Local\Temp\cchQ6eAG.s 			page 1


   1              		.syntax unified
   2              		.cpu cortex-m3
   3              		.fpu softvfp
   4              		.eabi_attribute 20, 1
   5              		.eabi_attribute 21, 1
   6              		.eabi_attribute 23, 3
   7              		.eabi_attribute 24, 1
   8              		.eabi_attribute 25, 1
   9              		.eabi_attribute 26, 1
  10              		.eabi_attribute 30, 1
  11              		.eabi_attribute 34, 1
  12              		.eabi_attribute 18, 4
  13              		.thumb
  14              		.syntax unified
  15              		.file	"main.c"
  16              		.text
  17              	.Ltext0:
  18              		.cfi_sections	.debug_frame
  19              		.syntax unified
  20              		.global _printf_float
  21              		.thumb
  22              		.syntax unified
  23              		.section	.text.RxIsr,"ax",%progbits
  24              		.align	2
  25              		.global	RxIsr
  26              		.thumb
  27              		.thumb_func
  28              		.type	RxIsr, %function
  29              	RxIsr:
  30              	.LFB65:
  31              		.file 1 "main.c"
   1:main.c        **** 
   2:main.c        **** #include <project.h>
   3:main.c        **** #include <stdio.h>
   4:main.c        **** #include "common.h"
   5:main.c        **** #include <math.h>
   6:main.c        **** #include <stdlib.h>     /* strtod */
   7:main.c        **** 
   8:main.c        **** #define	Frequency 1000000.0			// Frequency of PWMClock
   9:main.c        **** #define	One_ms (Frequency/1000.0)	// 1 ms constant
  10:main.c        **** 
  11:main.c        **** /* Add an explicit reference to the floating point printf library to allow
  12:main.c        **** the usage of floating point conversion specifier */
  13:main.c        **** #if defined (__GNUC__)
  14:main.c        ****     asm (".global _printf_float");
  15:main.c        **** #endif
  16:main.c        **** 
  17:main.c        **** uint8 errorStatus = 0u;
  18:main.c        **** 
  19:main.c        **** uint16 dutycyclelength(int angle)
  20:main.c        **** {
  21:main.c        ****     uint16 pulselength=(uint16)One_ms + ((angle+45.0)/90.0) * One_ms;
  22:main.c        ****     return pulselength;
  23:main.c        **** }
  24:main.c        **** 
  25:main.c        **** /*******************************************************************************
  26:main.c        **** * Function Name: RxIsr
ARM GAS  C:\Users\Andrew\AppData\Local\Temp\cchQ6eAG.s 			page 2


  27:main.c        **** ********************************************************************************
  28:main.c        **** *
  29:main.c        **** * Summary:
  30:main.c        **** *  Interrupt Service Routine for RX portion of the UART
  31:main.c        **** *
  32:main.c        **** * Parameters:
  33:main.c        **** *  None.
  34:main.c        **** *
  35:main.c        **** * Return:
  36:main.c        **** *  None.
  37:main.c        **** *
  38:main.c        **** *******************************************************************************/
  39:main.c        **** int data_read_mode = 0;
  40:main.c        **** volatile int new_angle = 0;
  41:main.c        **** volatile int new_pos_set = 0;
  42:main.c        **** int angle = 0;
  43:main.c        **** int isNegative=0;
  44:main.c        **** char sendValue[100];
  45:main.c        **** uint16 adcValue1;
  46:main.c        **** uint16 adcValue2;
  47:main.c        **** char temp[7];
  48:main.c        **** int nn=0;
  49:main.c        **** double pid[3] = {1,0,0};
  50:main.c        **** char help[100];
  51:main.c        **** int tt = 0;
  52:main.c        **** int pos=1600;
  53:main.c        **** int new_pos;
  54:main.c        **** double err;
  55:main.c        **** CY_ISR(RxIsr)
  56:main.c        **** {
  32              		.loc 1 56 0
  33              		.cfi_startproc
  34              		@ args = 0, pretend = 0, frame = 0
  35              		@ frame_needed = 0, uses_anonymous_args = 0
  36 0000 2DE9F041 		push	{r4, r5, r6, r7, r8, lr}
  37              		.cfi_def_cfa_offset 24
  38              		.cfi_offset 4, -24
  39              		.cfi_offset 5, -20
  40              		.cfi_offset 6, -16
  41              		.cfi_offset 7, -12
  42              		.cfi_offset 8, -8
  43              		.cfi_offset 14, -4
  44 0004 84B0     		sub	sp, sp, #16
  45              		.cfi_def_cfa_offset 40
  46              	.L20:
  57:main.c        ****     uint8 rxStatus;         
  58:main.c        ****     uint8 rxData;           
  59:main.c        ****     
  60:main.c        ****     do
  61:main.c        ****     {
  62:main.c        ****         /* Read receiver status register */
  63:main.c        ****         rxStatus = UART_RXSTATUS_REG;
  47              		.loc 1 63 0
  48 0006 624B     		ldr	r3, .L22
  49 0008 1B78     		ldrb	r3, [r3]	@ zero_extendqisi2
  50 000a DBB2     		uxtb	r3, r3
  51              	.LVL0:
ARM GAS  C:\Users\Andrew\AppData\Local\Temp\cchQ6eAG.s 			page 3


  64:main.c        **** 
  65:main.c        ****         if((rxStatus & (UART_RX_STS_BREAK      | UART_RX_STS_PAR_ERROR |
  52              		.loc 1 65 0
  53 000c 13F01E0F 		tst	r3, #30
  54 0010 05D0     		beq	.L2
  66:main.c        ****                         UART_RX_STS_STOP_ERROR | UART_RX_STS_OVERRUN)) != 0u)
  67:main.c        ****         {
  68:main.c        ****             /* ERROR handling. */
  69:main.c        ****             errorStatus |= rxStatus & ( UART_RX_STS_BREAK      | UART_RX_STS_PAR_ERROR | 
  55              		.loc 1 69 0
  56 0012 6048     		ldr	r0, .L22+4
  57 0014 03F01E02 		and	r2, r3, #30
  58 0018 0178     		ldrb	r1, [r0]	@ zero_extendqisi2
  59 001a 0A43     		orrs	r2, r2, r1
  60 001c 0270     		strb	r2, [r0]
  61              	.L2:
  62 001e 03F02003 		and	r3, r3, #32
  63              	.LVL1:
  70:main.c        ****                                         UART_RX_STS_STOP_ERROR | UART_RX_STS_OVERRUN);
  71:main.c        ****         }
  72:main.c        ****         
  73:main.c        ****         if((rxStatus & UART_RX_STS_FIFO_NOTEMPTY) != 0u)
  64              		.loc 1 73 0
  65 0022 03F0FF04 		and	r4, r3, #255
  66 0026 002B     		cmp	r3, #0
  67 0028 00F0AB80 		beq	.L3
  74:main.c        ****         {
  75:main.c        ****             /* Read data from the RX data register */
  76:main.c        ****             rxData = UART_RXDATA_REG;
  68              		.loc 1 76 0
  69 002c 5A4B     		ldr	r3, .L22+8
  70 002e 1A78     		ldrb	r2, [r3]	@ zero_extendqisi2
  71 0030 D2B2     		uxtb	r2, r2
  72              	.LVL2:
  77:main.c        ****             help[tt] = rxData;
  73              		.loc 1 77 0
  74 0032 5849     		ldr	r1, .L22+4
  75 0034 4B68     		ldr	r3, [r1, #4]
  76 0036 5948     		ldr	r0, .L22+12
  77 0038 C254     		strb	r2, [r0, r3]
  78:main.c        ****             tt++;
  78              		.loc 1 78 0
  79 003a 0133     		adds	r3, r3, #1
  80 003c 4B60     		str	r3, [r1, #4]
  79:main.c        ****             if(tt==99){tt=0;}
  81              		.loc 1 79 0
  82 003e 632B     		cmp	r3, #99
  83 0040 02D1     		bne	.L4
  84              		.loc 1 79 0 is_stmt 0 discriminator 1
  85 0042 0021     		movs	r1, #0
  86 0044 534B     		ldr	r3, .L22+4
  87 0046 5960     		str	r1, [r3, #4]
  88              	.L4:
  80:main.c        ****             
  81:main.c        ****             switch(data_read_mode)
  89              		.loc 1 81 0 is_stmt 1
  90 0048 524B     		ldr	r3, .L22+4
ARM GAS  C:\Users\Andrew\AppData\Local\Temp\cchQ6eAG.s 			page 4


  91 004a 9B68     		ldr	r3, [r3, #8]
  92 004c 052B     		cmp	r3, #5
  93 004e 00F29880 		bhi	.L3
  94 0052 DFE803F0 		tbb	[pc, r3]
  95              	.L7:
  96 0056 03       		.byte	(.L6-.L7)/2
  97 0057 0E       		.byte	(.L8-.L7)/2
  98 0058 26       		.byte	(.L9-.L7)/2
  99 0059 52       		.byte	(.L10-.L7)/2
 100 005a 69       		.byte	(.L11-.L7)/2
 101 005b 80       		.byte	(.L12-.L7)/2
 102              		.p2align 1
 103              	.L6:
  82:main.c        ****             {
  83:main.c        ****                 case 0:
  84:main.c        ****                     if(rxData=='{' )
 104              		.loc 1 84 0
 105 005c 7B2A     		cmp	r2, #123
 106 005e 40F09080 		bne	.L3
  85:main.c        ****                     {
  86:main.c        ****                         temp[0] = '\0';
 107              		.loc 1 86 0
 108 0062 0021     		movs	r1, #0
 109 0064 4E4A     		ldr	r2, .L22+16
 110              	.LVL3:
 111 0066 1170     		strb	r1, [r2]
  87:main.c        ****                         new_angle = 0;
 112              		.loc 1 87 0
 113 0068 4A4A     		ldr	r2, .L22+4
 114 006a D160     		str	r1, [r2, #12]
  88:main.c        ****                         data_read_mode++;
 115              		.loc 1 88 0
 116 006c 0133     		adds	r3, r3, #1
 117 006e 9360     		str	r3, [r2, #8]
 118 0070 87E0     		b	.L3
 119              	.LVL4:
 120              	.L8:
  89:main.c        ****                     }
  90:main.c        ****                 break;
  91:main.c        ****                 case 1:
  92:main.c        ****                     if(rxData=='x'){
 121              		.loc 1 92 0
 122 0072 782A     		cmp	r2, #120
 123 0074 03D1     		bne	.L13
  93:main.c        ****                         data_read_mode = 2;}
 124              		.loc 1 93 0
 125 0076 0222     		movs	r2, #2
 126              	.LVL5:
 127 0078 464B     		ldr	r3, .L22+4
 128 007a 9A60     		str	r2, [r3, #8]
 129 007c 81E0     		b	.L3
 130              	.LVL6:
 131              	.L13:
  94:main.c        ****                     else if(rxData=='p'){
 132              		.loc 1 94 0
 133 007e 702A     		cmp	r2, #112
 134 0080 03D1     		bne	.L14
ARM GAS  C:\Users\Andrew\AppData\Local\Temp\cchQ6eAG.s 			page 5


  95:main.c        ****                         data_read_mode = 3;}
 135              		.loc 1 95 0
 136 0082 0322     		movs	r2, #3
 137              	.LVL7:
 138 0084 434B     		ldr	r3, .L22+4
 139 0086 9A60     		str	r2, [r3, #8]
 140 0088 7BE0     		b	.L3
 141              	.LVL8:
 142              	.L14:
  96:main.c        ****                     else if(rxData=='i'){
 143              		.loc 1 96 0
 144 008a 692A     		cmp	r2, #105
 145 008c 03D1     		bne	.L15
  97:main.c        ****                         data_read_mode = 4;}
 146              		.loc 1 97 0
 147 008e 0422     		movs	r2, #4
 148              	.LVL9:
 149 0090 404B     		ldr	r3, .L22+4
 150 0092 9A60     		str	r2, [r3, #8]
 151 0094 75E0     		b	.L3
 152              	.LVL10:
 153              	.L15:
  98:main.c        ****                     else if(rxData=='d'){
 154              		.loc 1 98 0
 155 0096 642A     		cmp	r2, #100
 156 0098 73D1     		bne	.L3
  99:main.c        ****                         data_read_mode = 5;}
 157              		.loc 1 99 0
 158 009a 0522     		movs	r2, #5
 159              	.LVL11:
 160 009c 3D4B     		ldr	r3, .L22+4
 161 009e 9A60     		str	r2, [r3, #8]
 162 00a0 6FE0     		b	.L3
 163              	.LVL12:
 164              	.L9:
 100:main.c        ****                 break;
 101:main.c        ****                 case 2:
 102:main.c        ****                     if(rxData != '}'){
 165              		.loc 1 102 0
 166 00a2 7D2A     		cmp	r2, #125
 167 00a4 06D0     		beq	.L16
 103:main.c        ****                         temp[nn] = rxData;
 168              		.loc 1 103 0
 169 00a6 3B49     		ldr	r1, .L22+4
 170 00a8 0B69     		ldr	r3, [r1, #16]
 171 00aa 3D48     		ldr	r0, .L22+16
 172 00ac C254     		strb	r2, [r0, r3]
 104:main.c        ****                         nn++;
 173              		.loc 1 104 0
 174 00ae 0133     		adds	r3, r3, #1
 175 00b0 0B61     		str	r3, [r1, #16]
 176 00b2 66E0     		b	.L3
 177              	.L16:
 105:main.c        ****                     }
 106:main.c        ****                     else {
 107:main.c        ****                         new_pos = (int) strtol(temp, (char **)NULL, 10);
 178              		.loc 1 107 0
ARM GAS  C:\Users\Andrew\AppData\Local\Temp\cchQ6eAG.s 			page 6


 179 00b4 3A4F     		ldr	r7, .L22+16
 180 00b6 0A22     		movs	r2, #10
 181              	.LVL13:
 182 00b8 0021     		movs	r1, #0
 183 00ba 3846     		mov	r0, r7
 184              	.LVL14:
 185 00bc FFF7FEFF 		bl	strtol
 186              	.LVL15:
 187 00c0 384B     		ldr	r3, .L22+20
 188 00c2 1860     		str	r0, [r3]
 108:main.c        ****                         new_pos_set = 1;
 189              		.loc 1 108 0
 190 00c4 334D     		ldr	r5, .L22+4
 191 00c6 0123     		movs	r3, #1
 192 00c8 6B61     		str	r3, [r5, #20]
 109:main.c        ****                         nn=0; 
 193              		.loc 1 109 0
 194 00ca 0026     		movs	r6, #0
 195 00cc 2E61     		str	r6, [r5, #16]
 110:main.c        ****                     
 111:main.c        ****                         sprintf(sendValue,"%08d\t%08.0f\t%08d",adcValue1,err,pos);
 196              		.loc 1 111 0
 197 00ce 364B     		ldr	r3, .L22+24
 198 00d0 1A88     		ldrh	r2, [r3]
 199 00d2 DFF8E480 		ldr	r8, .L22+40
 200 00d6 354B     		ldr	r3, .L22+28
 201 00d8 1B68     		ldr	r3, [r3]
 202 00da 0293     		str	r3, [sp, #8]
 203 00dc 344B     		ldr	r3, .L22+32
 204 00de D3E90001 		ldrd	r0, [r3]
 205 00e2 CDE90001 		strd	r0, [sp]
 206 00e6 3349     		ldr	r1, .L22+36
 207 00e8 4046     		mov	r0, r8
 208 00ea FFF7FEFF 		bl	sprintf
 209              	.LVL16:
 112:main.c        ****                         UART_PutString(sendValue);
 210              		.loc 1 112 0
 211 00ee 4046     		mov	r0, r8
 212 00f0 FFF7FEFF 		bl	UART_PutString
 213              	.LVL17:
 113:main.c        ****                         temp[0] = '\0';
 214              		.loc 1 113 0
 215 00f4 3E70     		strb	r6, [r7]
 114:main.c        ****                         data_read_mode = 0;
 216              		.loc 1 114 0
 217 00f6 AE60     		str	r6, [r5, #8]
 218 00f8 43E0     		b	.L3
 219              	.LVL18:
 220              	.L10:
 115:main.c        ****                     }
 116:main.c        ****                   
 117:main.c        ****                 break;
 118:main.c        ****                 case 3:
 119:main.c        ****                     if(rxData != '}'){
 221              		.loc 1 119 0
 222 00fa 7D2A     		cmp	r2, #125
 223 00fc 06D0     		beq	.L17
ARM GAS  C:\Users\Andrew\AppData\Local\Temp\cchQ6eAG.s 			page 7


 120:main.c        ****                         temp[nn] = rxData;
 224              		.loc 1 120 0
 225 00fe 2549     		ldr	r1, .L22+4
 226 0100 0B69     		ldr	r3, [r1, #16]
 227 0102 2748     		ldr	r0, .L22+16
 228 0104 C254     		strb	r2, [r0, r3]
 121:main.c        ****                         nn++;
 229              		.loc 1 121 0
 230 0106 0133     		adds	r3, r3, #1
 231 0108 0B61     		str	r3, [r1, #16]
 232 010a 3AE0     		b	.L3
 233              	.L17:
 122:main.c        ****                     }
 123:main.c        ****                     else {
 124:main.c        ****                         pid[0] = strtod(temp, NULL);
 234              		.loc 1 124 0
 235 010c 244D     		ldr	r5, .L22+16
 236 010e 0021     		movs	r1, #0
 237 0110 2846     		mov	r0, r5
 238 0112 FFF7FEFF 		bl	strtod
 239              	.LVL19:
 240 0116 254B     		ldr	r3, .L22+28
 241 0118 C3E90201 		strd	r0, [r3, #8]
 125:main.c        ****                         nn=0;
 242              		.loc 1 125 0
 243 011c 1D4A     		ldr	r2, .L22+4
 244 011e 0023     		movs	r3, #0
 245 0120 1361     		str	r3, [r2, #16]
 126:main.c        ****                         temp[0] = '\0';
 246              		.loc 1 126 0
 247 0122 2B70     		strb	r3, [r5]
 127:main.c        ****                         data_read_mode = 0;
 248              		.loc 1 127 0
 249 0124 9360     		str	r3, [r2, #8]
 250 0126 2CE0     		b	.L3
 251              	.LVL20:
 252              	.L11:
 128:main.c        ****                     }
 129:main.c        ****                     
 130:main.c        ****                 break;
 131:main.c        ****                 case 4:
 132:main.c        ****                     if(rxData != '}'){
 253              		.loc 1 132 0
 254 0128 7D2A     		cmp	r2, #125
 255 012a 06D0     		beq	.L18
 133:main.c        ****                         temp[nn] = rxData;
 256              		.loc 1 133 0
 257 012c 1949     		ldr	r1, .L22+4
 258 012e 0B69     		ldr	r3, [r1, #16]
 259 0130 1B48     		ldr	r0, .L22+16
 260 0132 C254     		strb	r2, [r0, r3]
 134:main.c        ****                         nn++;
 261              		.loc 1 134 0
 262 0134 0133     		adds	r3, r3, #1
 263 0136 0B61     		str	r3, [r1, #16]
 264 0138 23E0     		b	.L3
 265              	.L18:
ARM GAS  C:\Users\Andrew\AppData\Local\Temp\cchQ6eAG.s 			page 8


 135:main.c        ****                     }
 136:main.c        ****                     else {
 137:main.c        ****                         pid[1] = strtod(temp, NULL);
 266              		.loc 1 137 0
 267 013a 194D     		ldr	r5, .L22+16
 268 013c 0021     		movs	r1, #0
 269 013e 2846     		mov	r0, r5
 270 0140 FFF7FEFF 		bl	strtod
 271              	.LVL21:
 272 0144 194B     		ldr	r3, .L22+28
 273 0146 C3E90401 		strd	r0, [r3, #16]
 138:main.c        ****                         nn=0;
 274              		.loc 1 138 0
 275 014a 124A     		ldr	r2, .L22+4
 276 014c 0023     		movs	r3, #0
 277 014e 1361     		str	r3, [r2, #16]
 139:main.c        ****                         temp[0] = '\0';
 278              		.loc 1 139 0
 279 0150 2B70     		strb	r3, [r5]
 140:main.c        ****                         data_read_mode = 0;
 280              		.loc 1 140 0
 281 0152 9360     		str	r3, [r2, #8]
 282 0154 15E0     		b	.L3
 283              	.LVL22:
 284              	.L12:
 141:main.c        ****                     }
 142:main.c        ****                     
 143:main.c        ****                 break;
 144:main.c        ****                 case 5:
 145:main.c        ****                     if(rxData != '}'){
 285              		.loc 1 145 0
 286 0156 7D2A     		cmp	r2, #125
 287 0158 06D0     		beq	.L19
 146:main.c        ****                         temp[nn] = rxData;
 288              		.loc 1 146 0
 289 015a 0E49     		ldr	r1, .L22+4
 290 015c 0B69     		ldr	r3, [r1, #16]
 291 015e 1048     		ldr	r0, .L22+16
 292 0160 C254     		strb	r2, [r0, r3]
 147:main.c        ****                         nn++;
 293              		.loc 1 147 0
 294 0162 0133     		adds	r3, r3, #1
 295 0164 0B61     		str	r3, [r1, #16]
 296 0166 0CE0     		b	.L3
 297              	.L19:
 148:main.c        ****                     }
 149:main.c        ****                     else {
 150:main.c        ****                         pid[2] = strtod(temp, NULL);
 298              		.loc 1 150 0
 299 0168 0D4D     		ldr	r5, .L22+16
 300 016a 0021     		movs	r1, #0
 301 016c 2846     		mov	r0, r5
 302 016e FFF7FEFF 		bl	strtod
 303              	.LVL23:
 304 0172 0E4B     		ldr	r3, .L22+28
 305 0174 C3E90601 		strd	r0, [r3, #24]
 151:main.c        ****                         nn=0;
ARM GAS  C:\Users\Andrew\AppData\Local\Temp\cchQ6eAG.s 			page 9


 306              		.loc 1 151 0
 307 0178 064A     		ldr	r2, .L22+4
 308 017a 0023     		movs	r3, #0
 309 017c 1361     		str	r3, [r2, #16]
 152:main.c        ****                         temp[0] = '\0';
 310              		.loc 1 152 0
 311 017e 2B70     		strb	r3, [r5]
 153:main.c        ****                         data_read_mode = 0;
 312              		.loc 1 153 0
 313 0180 9360     		str	r3, [r2, #8]
 314              	.L3:
 154:main.c        ****                     }
 155:main.c        ****                     
 156:main.c        ****                 break;
 157:main.c        ****             }
 158:main.c        ****             
 159:main.c        ****             if(errorStatus == 0u)
 160:main.c        ****             {
 161:main.c        ****                 /* Send data backward */
 162:main.c        ****                 //UART_TXDATA_REG = rxData;
 163:main.c        ****             }
 164:main.c        ****         }
 165:main.c        ****     }while((rxStatus & UART_RX_STS_FIFO_NOTEMPTY) != 0u);
 315              		.loc 1 165 0
 316 0182 002C     		cmp	r4, #0
 317 0184 7FF43FAF 		bne	.L20
 166:main.c        **** 
 167:main.c        **** }
 318              		.loc 1 167 0
 319 0188 04B0     		add	sp, sp, #16
 320              		.cfi_def_cfa_offset 24
 321              		@ sp needed
 322 018a BDE8F081 		pop	{r4, r5, r6, r7, r8, pc}
 323              	.L23:
 324 018e 00BF     		.align	2
 325              	.L22:
 326 0190 68650040 		.word	1073767784
 327 0194 00000000 		.word	.LANCHOR0
 328 0198 4B650040 		.word	1073767755
 329 019c 00000000 		.word	help
 330 01a0 00000000 		.word	temp
 331 01a4 00000000 		.word	new_pos
 332 01a8 00000000 		.word	adcValue1
 333 01ac 00000000 		.word	.LANCHOR1
 334 01b0 00000000 		.word	err
 335 01b4 00000000 		.word	.LC0
 336 01b8 00000000 		.word	sendValue
 337              		.cfi_endproc
 338              	.LFE65:
 339              		.size	RxIsr, .-RxIsr
 340              		.global	__aeabi_i2d
 341              		.global	__aeabi_dadd
 342              		.global	__aeabi_ddiv
 343              		.global	__aeabi_dmul
 344              		.global	__aeabi_d2uiz
 345              		.section	.text.dutycyclelength,"ax",%progbits
 346              		.align	2
ARM GAS  C:\Users\Andrew\AppData\Local\Temp\cchQ6eAG.s 			page 10


 347              		.global	dutycyclelength
 348              		.thumb
 349              		.thumb_func
 350              		.type	dutycyclelength, %function
 351              	dutycyclelength:
 352              	.LFB64:
  20:main.c        ****     uint16 pulselength=(uint16)One_ms + ((angle+45.0)/90.0) * One_ms;
 353              		.loc 1 20 0
 354              		.cfi_startproc
 355              		@ args = 0, pretend = 0, frame = 0
 356              		@ frame_needed = 0, uses_anonymous_args = 0
 357              	.LVL24:
 358 0000 08B5     		push	{r3, lr}
 359              		.cfi_def_cfa_offset 8
 360              		.cfi_offset 3, -8
 361              		.cfi_offset 14, -4
  21:main.c        ****     return pulselength;
 362              		.loc 1 21 0
 363 0002 FFF7FEFF 		bl	__aeabi_i2d
 364              	.LVL25:
 365 0006 0022     		movs	r2, #0
 366 0008 094B     		ldr	r3, .L26
 367 000a FFF7FEFF 		bl	__aeabi_dadd
 368              	.LVL26:
 369 000e 0022     		movs	r2, #0
 370 0010 084B     		ldr	r3, .L26+4
 371 0012 FFF7FEFF 		bl	__aeabi_ddiv
 372              	.LVL27:
 373 0016 0022     		movs	r2, #0
 374 0018 074B     		ldr	r3, .L26+8
 375 001a FFF7FEFF 		bl	__aeabi_dmul
 376              	.LVL28:
 377 001e 0022     		movs	r2, #0
 378 0020 054B     		ldr	r3, .L26+8
 379 0022 FFF7FEFF 		bl	__aeabi_dadd
 380              	.LVL29:
 381 0026 FFF7FEFF 		bl	__aeabi_d2uiz
 382              	.LVL30:
  23:main.c        **** 
 383              		.loc 1 23 0
 384 002a 80B2     		uxth	r0, r0
 385 002c 08BD     		pop	{r3, pc}
 386              	.L27:
 387 002e 00BF     		.align	2
 388              	.L26:
 389 0030 00804640 		.word	1078362112
 390 0034 00805640 		.word	1079410688
 391 0038 00408F40 		.word	1083129856
 392              		.cfi_endproc
 393              	.LFE64:
 394              		.size	dutycyclelength, .-dutycyclelength
 395              		.global	__aeabi_dsub
 396              		.global	__aeabi_d2iz
 397              		.section	.text.main,"ax",%progbits
 398              		.align	2
 399              		.global	main
 400              		.thumb
ARM GAS  C:\Users\Andrew\AppData\Local\Temp\cchQ6eAG.s 			page 11


 401              		.thumb_func
 402              		.type	main, %function
 403              	main:
 404              	.LFB66:
 168:main.c        ****     
 169:main.c        **** 
 170:main.c        **** /*******************************************************************************
 171:main.c        **** * Function Name: main()
 172:main.c        **** ********************************************************************************
 173:main.c        **** * Summary:
 174:main.c        **** *  Main function for the project.
 175:main.c        **** *
 176:main.c        **** * Theory:
 177:main.c        **** *  The function starts UART and interrupt components.
 178:main.c        **** *
 179:main.c        **** *******************************************************************************/
 180:main.c        **** int led_switch = 0;
 181:main.c        **** int main()
 182:main.c        **** {
 405              		.loc 1 182 0
 406              		.cfi_startproc
 407              		@ args = 0, pretend = 0, frame = 8
 408              		@ frame_needed = 0, uses_anonymous_args = 0
 409 0000 2DE9F047 		push	{r4, r5, r6, r7, r8, r9, r10, lr}
 410              		.cfi_def_cfa_offset 32
 411              		.cfi_offset 4, -32
 412              		.cfi_offset 5, -28
 413              		.cfi_offset 6, -24
 414              		.cfi_offset 7, -20
 415              		.cfi_offset 8, -16
 416              		.cfi_offset 9, -12
 417              		.cfi_offset 10, -8
 418              		.cfi_offset 14, -4
 419 0004 82B0     		sub	sp, sp, #8
 420              		.cfi_def_cfa_offset 40
 183:main.c        ****     
 184:main.c        ****     
 185:main.c        ****     //PWM variables
 186:main.c        **** 
 187:main.c        ****     PWM_1_Start();
 421              		.loc 1 187 0
 422 0006 FFF7FEFF 		bl	PWM_1_Start
 423              	.LVL31:
 188:main.c        ****     ADC_SAR_1_Start(); 
 424              		.loc 1 188 0
 425 000a FFF7FEFF 		bl	ADC_SAR_1_Start
 426              	.LVL32:
 189:main.c        ****     //ADC_SAR_1_StartConvert(); 
 190:main.c        ****     //ADC_SAR_2_Start(); 
 191:main.c        ****     //ADC_SAR_2_StartConvert(); 
 192:main.c        ****     
 193:main.c        ****     uint8 button = 0u;
 194:main.c        ****     uint8 buttonPre = 0u;
 195:main.c        ****     
 196:main.c        ****     LED_Write(LED_OFF);     /* Clear LED */
 427              		.loc 1 196 0
 428 000e 0020     		movs	r0, #0
ARM GAS  C:\Users\Andrew\AppData\Local\Temp\cchQ6eAG.s 			page 12


 429 0010 FFF7FEFF 		bl	LED_Write
 430              	.LVL33:
 197:main.c        **** 
 198:main.c        ****     UART_Start();           /* Start communication component */
 431              		.loc 1 198 0
 432 0014 FFF7FEFF 		bl	UART_Start
 433              	.LVL34:
 199:main.c        **** 
 200:main.c        **** #if(INTERRUPT_CODE_ENABLED == ENABLED)
 201:main.c        ****     isr_rx_StartEx(RxIsr);
 434              		.loc 1 201 0
 435 0018 5B48     		ldr	r0, .L39+8
 436 001a FFF7FEFF 		bl	isr_rx_StartEx
 437              	.LVL35:
 202:main.c        **** #endif /* INTERRUPT_CODE_ENABLED == ENABLED */
 203:main.c        ****     
 204:main.c        ****     CyGlobalIntEnable;      /* Enable global interrupts. */
 438              		.loc 1 204 0
 439              		.syntax unified
 440              	@ 204 "main.c" 1
 441 001e 62B6     		CPSIE   i
 442              	@ 0 "" 2
 205:main.c        ****     
 206:main.c        **** 
 207:main.c        ****     angle = -89;
 443              		.loc 1 207 0
 444              		.thumb
 445              		.syntax unified
 446 0020 6FF05802 		mvn	r2, #88
 447 0024 594B     		ldr	r3, .L39+12
 448 0026 9A61     		str	r2, [r3, #24]
 449              	.LVL36:
 208:main.c        ****     int up = 1;
 209:main.c        ****     int cycle = 1000;
 210:main.c        **** 
 211:main.c        ****     double der, prev_err, pid_integral,dt;
 212:main.c        ****     der = 0; prev_err = 0; pid_integral = 0; 
 450              		.loc 1 212 0
 451 0028 0023     		movs	r3, #0
 452 002a 0024     		movs	r4, #0
 453 002c CDE90034 		strd	r3, [sp]
 454 0030 9846     		mov	r8, r3
 455 0032 A146     		mov	r9, r4
 194:main.c        ****     
 456              		.loc 1 194 0
 457 0034 4FF0000A 		mov	r10, #0
 458 0038 00E0     		b	.L29
 459              	.LVL37:
 460              	.L36:
 182:main.c        ****     
 461              		.loc 1 182 0
 462 003a A246     		mov	r10, r4
 463              	.LVL38:
 464              	.L29:
 213:main.c        ****     dt = 0.01; //assumes cydelay = 10 below for a 100Hz frequency.
 214:main.c        ****     for(;;)
 215:main.c        ****     {
ARM GAS  C:\Users\Andrew\AppData\Local\Temp\cchQ6eAG.s 			page 13


 216:main.c        ****         
 217:main.c        ****         /*adcValue1 = ADC_SAR_1_GetResult16() ;
 218:main.c        ****         adcValue2 = ADC_SAR_2_GetResult16() ;
 219:main.c        ****         sprintf(sendValue,"%04d \t %04d \n",adcValue1,adcValue2);
 220:main.c        ****         UART_PutString(sendValue);
 221:main.c        ****         */
 222:main.c        ****         ADC_SAR_1_StartConvert();
 465              		.loc 1 222 0
 466 003c FFF7FEFF 		bl	ADC_SAR_1_StartConvert
 467              	.LVL39:
 223:main.c        ****         ADC_SAR_1_IsEndConversion(ADC_SAR_1_WAIT_FOR_RESULT);
 468              		.loc 1 223 0
 469 0040 0020     		movs	r0, #0
 470 0042 FFF7FEFF 		bl	ADC_SAR_1_IsEndConversion
 471              	.LVL40:
 224:main.c        ****         
 225:main.c        ****         adcValue1 = ADC_SAR_1_GetResult16();
 472              		.loc 1 225 0
 473 0046 FFF7FEFF 		bl	ADC_SAR_1_GetResult16
 474              	.LVL41:
 475 004a 80B2     		uxth	r0, r0
 476 004c 504B     		ldr	r3, .L39+16
 477 004e 1880     		strh	r0, [r3]	@ movhi
 226:main.c        ****         
 227:main.c        ****         /* INTERNAL PSOC TESTING */
 228:main.c        ****         /*
 229:main.c        ****         sprintf(sendValue,"%08d\t%08.0f\t%08d\t%08d\n",adcValue1,err,angle,new_pos);
 230:main.c        ****         UART_PutString(sendValue);
 231:main.c        ****        */
 232:main.c        ****                  
 233:main.c        ****         //PWM_1_WriteCompare(dutycyclelength(0));
 234:main.c        ****         if(new_pos_set){
 478              		.loc 1 234 0
 479 0050 4E4B     		ldr	r3, .L39+12
 480 0052 5B69     		ldr	r3, [r3, #20]
 481 0054 002B     		cmp	r3, #0
 482 0056 74D0     		beq	.L30
 235:main.c        ****             pos = new_pos;
 483              		.loc 1 235 0
 484 0058 4E4B     		ldr	r3, .L39+20
 485 005a 1B68     		ldr	r3, [r3]
 486 005c 4E4C     		ldr	r4, .L39+24
 487 005e 2360     		str	r3, [r4]
 236:main.c        ****             new_pos_set = 0;
 488              		.loc 1 236 0
 489 0060 4A4D     		ldr	r5, .L39+12
 490 0062 0022     		movs	r2, #0
 491 0064 6A61     		str	r2, [r5, #20]
 237:main.c        ****             new_angle = 0;
 492              		.loc 1 237 0
 493 0066 EA60     		str	r2, [r5, #12]
 238:main.c        ****             /*
 239:main.c        ****             if(pos<0){pos = pos - 13;}
 240:main.c        ****             if(pos>0){pos = pos + 12;}
 241:main.c        ****             if(pos>45){pos=45;}
 242:main.c        ****             if(pos<-45){pos=-45;}
 243:main.c        ****             if(pos<46 & pos>-46){
ARM GAS  C:\Users\Andrew\AppData\Local\Temp\cchQ6eAG.s 			page 14


 244:main.c        ****                 PWM_1_WriteCompare(dutycyclelength(pos));
 245:main.c        ****             }
 246:main.c        ****             */
 247:main.c        ****             err = -pos + adcValue1;
 494              		.loc 1 247 0
 495 0068 C01A     		subs	r0, r0, r3
 496 006a FFF7FEFF 		bl	__aeabi_i2d
 497              	.LVL42:
 498 006e 0646     		mov	r6, r0
 499 0070 0F46     		mov	r7, r1
 500 0072 4A4B     		ldr	r3, .L39+28
 501 0074 C3E90067 		strd	r6, [r3]
 248:main.c        ****             der = err - prev_err;
 502              		.loc 1 248 0
 503 0078 4246     		mov	r2, r8
 504 007a 4B46     		mov	r3, r9
 505 007c FFF7FEFF 		bl	__aeabi_dsub
 506              	.LVL43:
 507 0080 8046     		mov	r8, r0
 508              	.LVL44:
 509 0082 8946     		mov	r9, r1
 510              	.LVL45:
 249:main.c        ****             pid_integral += err;
 511              		.loc 1 249 0
 512 0084 3246     		mov	r2, r6
 513 0086 3B46     		mov	r3, r7
 514 0088 DDE90001 		ldrd	r0, [sp]
 515 008c FFF7FEFF 		bl	__aeabi_dadd
 516              	.LVL46:
 517 0090 CDE90001 		strd	r0, [sp]
 518              	.LVL47:
 250:main.c        ****             angle = pid[0] * err + ( pid[1] * pid_integral * dt) + ( pid[2] * der / dt );
 519              		.loc 1 250 0
 520 0094 D4E90223 		ldrd	r2, [r4, #8]
 521 0098 3046     		mov	r0, r6
 522              	.LVL48:
 523 009a 3946     		mov	r1, r7
 524 009c FFF7FEFF 		bl	__aeabi_dmul
 525              	.LVL49:
 526 00a0 0646     		mov	r6, r0
 527 00a2 0F46     		mov	r7, r1
 528 00a4 D4E90423 		ldrd	r2, [r4, #16]
 529 00a8 DDE90001 		ldrd	r0, [sp]
 530 00ac FFF7FEFF 		bl	__aeabi_dmul
 531              	.LVL50:
 532 00b0 33A3     		adr	r3, .L39
 533 00b2 D3E90023 		ldrd	r2, [r3]
 534 00b6 FFF7FEFF 		bl	__aeabi_dmul
 535              	.LVL51:
 536 00ba 0246     		mov	r2, r0
 537 00bc 0B46     		mov	r3, r1
 538 00be 3046     		mov	r0, r6
 539 00c0 3946     		mov	r1, r7
 540 00c2 FFF7FEFF 		bl	__aeabi_dadd
 541              	.LVL52:
 542 00c6 0646     		mov	r6, r0
 543 00c8 0F46     		mov	r7, r1
ARM GAS  C:\Users\Andrew\AppData\Local\Temp\cchQ6eAG.s 			page 15


 544 00ca D4E90623 		ldrd	r2, [r4, #24]
 545 00ce 4046     		mov	r0, r8
 546 00d0 4946     		mov	r1, r9
 547 00d2 FFF7FEFF 		bl	__aeabi_dmul
 548              	.LVL53:
 549 00d6 2AA3     		adr	r3, .L39
 550 00d8 D3E90023 		ldrd	r2, [r3]
 551 00dc FFF7FEFF 		bl	__aeabi_ddiv
 552              	.LVL54:
 553 00e0 0246     		mov	r2, r0
 554 00e2 0B46     		mov	r3, r1
 555 00e4 3046     		mov	r0, r6
 556 00e6 3946     		mov	r1, r7
 557 00e8 FFF7FEFF 		bl	__aeabi_dadd
 558              	.LVL55:
 559 00ec FFF7FEFF 		bl	__aeabi_d2iz
 560              	.LVL56:
 561 00f0 A861     		str	r0, [r5, #24]
 251:main.c        ****             //angle=angle*-1;
 252:main.c        ****             //angle = ((float)pos/4096.00)*90.00 - 45.00;
 253:main.c        ****             //angle = 0;
 254:main.c        ****             //Limit angles of proportional valve
 255:main.c        ****             if(angle<0){angle = angle - 13;}
 562              		.loc 1 255 0
 563 00f2 0028     		cmp	r0, #0
 564 00f4 01DA     		bge	.L31
 565              		.loc 1 255 0 is_stmt 0 discriminator 1
 566 00f6 0D38     		subs	r0, r0, #13
 567 00f8 A861     		str	r0, [r5, #24]
 568              	.L31:
 256:main.c        ****             if(angle>0){angle = angle + 12;}
 569              		.loc 1 256 0 is_stmt 1
 570 00fa 244B     		ldr	r3, .L39+12
 571 00fc 9B69     		ldr	r3, [r3, #24]
 572 00fe 002B     		cmp	r3, #0
 573 0100 02DD     		ble	.L32
 574              		.loc 1 256 0 is_stmt 0 discriminator 1
 575 0102 0C33     		adds	r3, r3, #12
 576 0104 214A     		ldr	r2, .L39+12
 577 0106 9361     		str	r3, [r2, #24]
 578              	.L32:
 257:main.c        ****             if(angle>45){angle=45;}
 579              		.loc 1 257 0 is_stmt 1
 580 0108 204B     		ldr	r3, .L39+12
 581 010a 9B69     		ldr	r3, [r3, #24]
 582 010c 2D2B     		cmp	r3, #45
 583 010e 02DD     		ble	.L33
 584              		.loc 1 257 0 is_stmt 0 discriminator 1
 585 0110 2D22     		movs	r2, #45
 586 0112 1E4B     		ldr	r3, .L39+12
 587 0114 9A61     		str	r2, [r3, #24]
 588              	.L33:
 258:main.c        ****             if(angle<-45){angle=-45;}
 589              		.loc 1 258 0 is_stmt 1
 590 0116 1D4B     		ldr	r3, .L39+12
 591 0118 9B69     		ldr	r3, [r3, #24]
 592 011a 13F12D0F 		cmn	r3, #45
ARM GAS  C:\Users\Andrew\AppData\Local\Temp\cchQ6eAG.s 			page 16


 593 011e 03DA     		bge	.L34
 594              		.loc 1 258 0 is_stmt 0 discriminator 1
 595 0120 6FF02C02 		mvn	r2, #44
 596 0124 194B     		ldr	r3, .L39+12
 597 0126 9A61     		str	r2, [r3, #24]
 598              	.L34:
 259:main.c        ****             if(angle<46 & angle>-46){
 599              		.loc 1 259 0 is_stmt 1
 600 0128 184B     		ldr	r3, .L39+12
 601 012a 9869     		ldr	r0, [r3, #24]
 602 012c 00F12D03 		add	r3, r0, #45
 603 0130 5A2B     		cmp	r3, #90
 604 0132 03D8     		bhi	.L35
 260:main.c        ****                 PWM_1_WriteCompare(dutycyclelength(angle));
 605              		.loc 1 260 0
 606 0134 FFF7FEFF 		bl	dutycyclelength
 607              	.LVL57:
 608 0138 FFF7FEFF 		bl	PWM_1_WriteCompare
 609              	.LVL58:
 610              	.L35:
 261:main.c        ****             }
 262:main.c        ****             prev_err = err;
 611              		.loc 1 262 0
 612 013c 174B     		ldr	r3, .L39+28
 613 013e D3E90089 		ldrd	r8, [r3]
 614              	.LVL59:
 615              	.L30:
 263:main.c        ****             
 264:main.c        ****         }
 265:main.c        ****         CyDelay(25);
 616              		.loc 1 265 0
 617 0142 1920     		movs	r0, #25
 618 0144 FFF7FEFF 		bl	CyDelay
 619              	.LVL60:
 266:main.c        ****         
 267:main.c        ****         
 268:main.c        ****         
 269:main.c        ****         /***********************************************************************
 270:main.c        ****         * Handle SW2 press. 
 271:main.c        ****         ***********************************************************************/
 272:main.c        ****         button = SW2_Read();
 620              		.loc 1 272 0
 621 0148 FFF7FEFF 		bl	SW2_Read
 622              	.LVL61:
 273:main.c        ****         if((button == 0u) && (buttonPre != 0u))
 623              		.loc 1 273 0
 624 014c 0446     		mov	r4, r0
 625 014e 0028     		cmp	r0, #0
 626 0150 7FF473AF 		bne	.L36
 627              		.loc 1 273 0 is_stmt 0 discriminator 1
 628 0154 BAF1000F 		cmp	r10, #0
 629 0158 3FF46FAF 		beq	.L36
 274:main.c        ****         {
 275:main.c        ****             if(led_switch)
 630              		.loc 1 275 0 is_stmt 1
 631 015c 0B4B     		ldr	r3, .L39+12
 632 015e DB69     		ldr	r3, [r3, #28]
ARM GAS  C:\Users\Andrew\AppData\Local\Temp\cchQ6eAG.s 			page 17


 633 0160 33B1     		cbz	r3, .L37
 276:main.c        ****             {
 277:main.c        ****                 LED_Write(LED_OFF);     /* Clear LED */
 634              		.loc 1 277 0
 635 0162 FFF7FEFF 		bl	LED_Write
 636              	.LVL62:
 278:main.c        ****                 led_switch--;
 637              		.loc 1 278 0
 638 0166 094A     		ldr	r2, .L39+12
 639 0168 D369     		ldr	r3, [r2, #28]
 640 016a 013B     		subs	r3, r3, #1
 641 016c D361     		str	r3, [r2, #28]
 642 016e 64E7     		b	.L36
 643              	.LVL63:
 644              	.L37:
 279:main.c        ****             }
 280:main.c        ****             else
 281:main.c        ****             {
 282:main.c        ****                 LED_Write(LED_ON);     /* Clear LED */
 645              		.loc 1 282 0
 646 0170 0120     		movs	r0, #1
 647              	.LVL64:
 648 0172 FFF7FEFF 		bl	LED_Write
 649              	.LVL65:
 283:main.c        ****                 led_switch++;
 650              		.loc 1 283 0
 651 0176 054A     		ldr	r2, .L39+12
 652 0178 D369     		ldr	r3, [r2, #28]
 653 017a 0133     		adds	r3, r3, #1
 654 017c D361     		str	r3, [r2, #28]
 655 017e 5CE7     		b	.L36
 656              	.L40:
 657              		.align	3
 658              	.L39:
 659 0180 7B14AE47 		.word	1202590843
 660 0184 E17A843F 		.word	1065646817
 661 0188 00000000 		.word	RxIsr
 662 018c 00000000 		.word	.LANCHOR0
 663 0190 00000000 		.word	adcValue1
 664 0194 00000000 		.word	new_pos
 665 0198 00000000 		.word	.LANCHOR1
 666 019c 00000000 		.word	err
 667              		.cfi_endproc
 668              	.LFE66:
 669              		.size	main, .-main
 670              		.global	led_switch
 671              		.comm	err,8,8
 672              		.comm	new_pos,4,4
 673              		.global	pos
 674              		.global	tt
 675              		.comm	help,100,4
 676              		.global	pid
 677              		.global	nn
 678              		.comm	temp,7,4
 679              		.comm	adcValue2,2,2
 680              		.comm	adcValue1,2,2
 681              		.comm	sendValue,100,4
ARM GAS  C:\Users\Andrew\AppData\Local\Temp\cchQ6eAG.s 			page 18


 682              		.global	isNegative
 683              		.global	angle
 684              		.global	new_pos_set
 685              		.global	new_angle
 686              		.global	data_read_mode
 687              		.global	errorStatus
 688              		.data
 689              		.align	3
 690              		.set	.LANCHOR1,. + 0
 691              		.type	pos, %object
 692              		.size	pos, 4
 693              	pos:
 694 0000 40060000 		.word	1600
 695 0004 00000000 		.space	4
 696              		.type	pid, %object
 697              		.size	pid, 24
 698              	pid:
 699 0008 00000000 		.word	0
 700 000c 0000F03F 		.word	1072693248
 701 0010 00000000 		.word	0
 702 0014 00000000 		.word	0
 703 0018 00000000 		.word	0
 704 001c 00000000 		.word	0
 705              		.section	.rodata.str1.4,"aMS",%progbits,1
 706              		.align	2
 707              	.LC0:
 708 0000 25303864 		.ascii	"%08d\011%08.0f\011%08d\000"
 708      09253038 
 708      2E306609 
 708      25303864 
 708      00
 709              		.bss
 710              		.align	2
 711              		.set	.LANCHOR0,. + 0
 712              		.type	errorStatus, %object
 713              		.size	errorStatus, 1
 714              	errorStatus:
 715 0000 00       		.space	1
 716 0001 000000   		.space	3
 717              		.type	tt, %object
 718              		.size	tt, 4
 719              	tt:
 720 0004 00000000 		.space	4
 721              		.type	data_read_mode, %object
 722              		.size	data_read_mode, 4
 723              	data_read_mode:
 724 0008 00000000 		.space	4
 725              		.type	new_angle, %object
 726              		.size	new_angle, 4
 727              	new_angle:
 728 000c 00000000 		.space	4
 729              		.type	nn, %object
 730              		.size	nn, 4
 731              	nn:
 732 0010 00000000 		.space	4
 733              		.type	new_pos_set, %object
 734              		.size	new_pos_set, 4
ARM GAS  C:\Users\Andrew\AppData\Local\Temp\cchQ6eAG.s 			page 19


 735              	new_pos_set:
 736 0014 00000000 		.space	4
 737              		.type	angle, %object
 738              		.size	angle, 4
 739              	angle:
 740 0018 00000000 		.space	4
 741              		.type	led_switch, %object
 742              		.size	led_switch, 4
 743              	led_switch:
 744 001c 00000000 		.space	4
 745              		.type	isNegative, %object
 746              		.size	isNegative, 4
 747              	isNegative:
 748 0020 00000000 		.space	4
 749              		.text
 750              	.Letext0:
 751              		.file 2 "c:\\program files (x86)\\cypress\\psoc creator\\4.2\\psoc creator\\import\\gnu\\arm\\5.4.
 752              		.file 3 "c:\\program files (x86)\\cypress\\psoc creator\\4.2\\psoc creator\\import\\gnu\\arm\\5.4.
 753              		.file 4 "Generated_Source\\PSoC5/cytypes.h"
 754              		.file 5 "Generated_Source\\PSoC5/core_cm3.h"
 755              		.file 6 "c:\\program files (x86)\\cypress\\psoc creator\\4.2\\psoc creator\\import\\gnu\\arm\\5.4.
 756              		.file 7 "c:\\program files (x86)\\cypress\\psoc creator\\4.2\\psoc creator\\import\\gnu\\arm\\5.4.
 757              		.file 8 "Generated_Source\\PSoC5/UART.h"
 758              		.file 9 "Generated_Source\\PSoC5/PWM_1.h"
 759              		.file 10 "Generated_Source\\PSoC5/ADC_SAR_1.h"
 760              		.file 11 "Generated_Source\\PSoC5/LED.h"
 761              		.file 12 "Generated_Source\\PSoC5/isr_rx.h"
 762              		.file 13 "Generated_Source\\PSoC5/CyLib.h"
 763              		.file 14 "Generated_Source\\PSoC5/SW2.h"