ARM GAS  C:\Users\Andrew\AppData\Local\Temp\cc2BgMu3.s 			page 1


   1              		.syntax unified
   2              		.cpu cortex-m3
   3              		.fpu softvfp
   4              		.eabi_attribute 20, 1
   5              		.eabi_attribute 21, 1
   6              		.eabi_attribute 23, 3
   7              		.eabi_attribute 24, 1
   8              		.eabi_attribute 25, 1
   9              		.eabi_attribute 26, 1
  10              		.eabi_attribute 30, 6
  11              		.eabi_attribute 34, 1
  12              		.eabi_attribute 18, 4
  13              		.thumb
  14              		.syntax unified
  15              		.file	"main.c"
  16              		.text
  17              	.Ltext0:
  18              		.cfi_sections	.debug_frame
  19              		.syntax unified
  20              		.global _printf_float
  21              		.thumb
  22              		.syntax unified
  23              		.global	errorStatus
  24              		.bss
  25              		.type	errorStatus, %object
  26              		.size	errorStatus, 1
  27              	errorStatus:
  28 0000 00       		.space	1
  29              		.section	.text.writePWM,"ax",%progbits
  30              		.align	2
  31              		.global	writePWM
  32              		.thumb
  33              		.thumb_func
  34              		.type	writePWM, %function
  35              	writePWM:
  36              	.LFB64:
  37              		.file 1 "main.c"
   1:main.c        **** 
   2:main.c        **** #include <project.h>
   3:main.c        **** #include <stdio.h>
   4:main.c        **** #include "common.h"
   5:main.c        **** #include <math.h>
   6:main.c        **** #include <stdlib.h>     /* strtod */
   7:main.c        **** 
   8:main.c        **** #define	Frequency 1000000.0			// Frequency of PWMClock
   9:main.c        **** #define	One_ms (Frequency/1000.0)	// 1 ms constant
  10:main.c        **** 
  11:main.c        **** /* Add an explicit reference to the floating point printf library to allow
  12:main.c        **** the usage of floating point conversion specifier */
  13:main.c        **** #if defined (__GNUC__)
  14:main.c        ****     asm (".global _printf_float");
  15:main.c        **** #endif
  16:main.c        **** 
  17:main.c        **** uint8 errorStatus = 0u;
  18:main.c        **** 
  19:main.c        **** void writePWM(int cylinder, int pulse){
  38              		.loc 1 19 0
ARM GAS  C:\Users\Andrew\AppData\Local\Temp\cc2BgMu3.s 			page 2


  39              		.cfi_startproc
  40              		@ args = 0, pretend = 0, frame = 8
  41              		@ frame_needed = 1, uses_anonymous_args = 0
  42 0000 80B5     		push	{r7, lr}
  43              		.cfi_def_cfa_offset 8
  44              		.cfi_offset 7, -8
  45              		.cfi_offset 14, -4
  46 0002 82B0     		sub	sp, sp, #8
  47              		.cfi_def_cfa_offset 16
  48 0004 00AF     		add	r7, sp, #0
  49              		.cfi_def_cfa_register 7
  50 0006 7860     		str	r0, [r7, #4]
  51 0008 3960     		str	r1, [r7]
  20:main.c        ****     switch(cylinder){
  52              		.loc 1 20 0
  53 000a 7B68     		ldr	r3, [r7, #4]
  54 000c 002B     		cmp	r3, #0
  55 000e 00D0     		beq	.L3
  21:main.c        ****                 case 0:
  22:main.c        ****                     PWM_0_WriteCompare(pulse + 1500);
  23:main.c        ****                     break;
  24:main.c        ****             }  
  25:main.c        **** }
  56              		.loc 1 25 0
  57 0010 08E0     		b	.L4
  58              	.L3:
  22:main.c        ****                     break;
  59              		.loc 1 22 0
  60 0012 3B68     		ldr	r3, [r7]
  61 0014 9BB2     		uxth	r3, r3
  62 0016 03F2DC53 		addw	r3, r3, #1500
  63 001a 9BB2     		uxth	r3, r3
  64 001c 1846     		mov	r0, r3
  65 001e FFF7FEFF 		bl	PWM_0_WriteCompare
  23:main.c        ****             }  
  66              		.loc 1 23 0
  67 0022 00BF     		nop
  68              	.L4:
  69              		.loc 1 25 0
  70 0024 00BF     		nop
  71 0026 0837     		adds	r7, r7, #8
  72              		.cfi_def_cfa_offset 8
  73 0028 BD46     		mov	sp, r7
  74              		.cfi_def_cfa_register 13
  75              		@ sp needed
  76 002a 80BD     		pop	{r7, pc}
  77              		.cfi_endproc
  78              	.LFE64:
  79              		.size	writePWM, .-writePWM
  80              		.section	.text.main,"ax",%progbits
  81              		.align	2
  82              		.global	main
  83              		.thumb
  84              		.thumb_func
  85              		.type	main, %function
  86              	main:
  87              	.LFB65:
ARM GAS  C:\Users\Andrew\AppData\Local\Temp\cc2BgMu3.s 			page 3


  26:main.c        **** 
  27:main.c        **** 
  28:main.c        **** int main()
  29:main.c        **** {
  88              		.loc 1 29 0
  89              		.cfi_startproc
  90              		@ args = 0, pretend = 0, frame = 0
  91              		@ frame_needed = 1, uses_anonymous_args = 0
  92 0000 80B5     		push	{r7, lr}
  93              		.cfi_def_cfa_offset 8
  94              		.cfi_offset 7, -8
  95              		.cfi_offset 14, -4
  96 0002 00AF     		add	r7, sp, #0
  97              		.cfi_def_cfa_register 7
  30:main.c        ****     //initializing variables
  31:main.c        ****     Clock_1_Start();
  98              		.loc 1 31 0
  99 0004 FFF7FEFF 		bl	Clock_1_Start
  32:main.c        ****     PWM_0_Start();
 100              		.loc 1 32 0
 101 0008 FFF7FEFF 		bl	PWM_0_Start
  33:main.c        ****     
  34:main.c        **** #if(INTERRUPT_CODE_ENABLED == ENABLED)
  35:main.c        **** #endif /* INTERRUPT_CODE_ENABLED == ENABLED */
  36:main.c        ****     
  37:main.c        ****     CyGlobalIntEnable;      /* Enable global interrupts. */
 102              		.loc 1 37 0
 103              		.syntax unified
 104              	@ 37 "main.c" 1
 105 000c 62B6     		CPSIE   i
 106              	@ 0 "" 2
 107              		.thumb
 108              		.syntax unified
 109              	.L6:
  38:main.c        ****     
  39:main.c        ****     
  40:main.c        ****     for(;;)
  41:main.c        ****     {
  42:main.c        ****             writePWM(0,499);
 110              		.loc 1 42 0 discriminator 1
 111 000e 40F2F311 		movw	r1, #499
 112 0012 0020     		movs	r0, #0
 113 0014 FFF7FEFF 		bl	writePWM
  43:main.c        ****             CyDelay(500);
 114              		.loc 1 43 0 discriminator 1
 115 0018 4FF4FA70 		mov	r0, #500
 116 001c FFF7FEFF 		bl	CyDelay
  44:main.c        ****             writePWM(0,-499);
 117              		.loc 1 44 0 discriminator 1
 118 0020 6FF4F971 		mvn	r1, #498
 119 0024 0020     		movs	r0, #0
 120 0026 FFF7FEFF 		bl	writePWM
  45:main.c        ****             CyDelay(500);
 121              		.loc 1 45 0 discriminator 1
 122 002a 4FF4FA70 		mov	r0, #500
 123 002e FFF7FEFF 		bl	CyDelay
  46:main.c        ****             writePWM(0,0);
ARM GAS  C:\Users\Andrew\AppData\Local\Temp\cc2BgMu3.s 			page 4


 124              		.loc 1 46 0 discriminator 1
 125 0032 0021     		movs	r1, #0
 126 0034 0020     		movs	r0, #0
 127 0036 FFF7FEFF 		bl	writePWM
  47:main.c        ****             CyDelay(4000);
 128              		.loc 1 47 0 discriminator 1
 129 003a 4FF47A60 		mov	r0, #4000
 130 003e FFF7FEFF 		bl	CyDelay
  48:main.c        ****             
  49:main.c        ****     }
 131              		.loc 1 49 0 discriminator 1
 132 0042 E4E7     		b	.L6
 133              		.cfi_endproc
 134              	.LFE65:
 135              		.size	main, .-main
 136              		.text
 137              	.Letext0:
 138              		.file 2 "c:\\program files (x86)\\cypress\\psoc creator\\4.2\\psoc creator\\import\\gnu\\arm\\5.4.
 139              		.file 3 "c:\\program files (x86)\\cypress\\psoc creator\\4.2\\psoc creator\\import\\gnu\\arm\\5.4.
 140              		.file 4 "Generated_Source\\PSoC5/cytypes.h"
 141              		.file 5 "Generated_Source\\PSoC5/core_cm3.h"